
Eco_Home_Slave.elf:     file format elf32-avr

Sections:
Idx Name          Size      VMA       LMA       File off  Algn
  0 .text         00004cfe  00000000  00000000  00000094  2**1
                  CONTENTS, ALLOC, LOAD, READONLY, CODE
  1 .data         0000028a  00800060  00004cfe  00004d92  2**0
                  CONTENTS, ALLOC, LOAD, DATA
  2 .bss          0000003f  008002ea  008002ea  0000501c  2**0
                  ALLOC
  3 .debug_aranges 00000160  00000000  00000000  0000501c  2**0
                  CONTENTS, READONLY, DEBUGGING
  4 .debug_pubnames 000001b4  00000000  00000000  0000517c  2**0
                  CONTENTS, READONLY, DEBUGGING
  5 .debug_info   000027e8  00000000  00000000  00005330  2**0
                  CONTENTS, READONLY, DEBUGGING
  6 .debug_abbrev 000010a0  00000000  00000000  00007b18  2**0
                  CONTENTS, READONLY, DEBUGGING
  7 .debug_line   00001162  00000000  00000000  00008bb8  2**0
                  CONTENTS, READONLY, DEBUGGING
  8 .debug_frame  00000180  00000000  00000000  00009d1c  2**2
                  CONTENTS, READONLY, DEBUGGING
  9 .debug_str    00000330  00000000  00000000  00009e9c  2**0
                  CONTENTS, READONLY, DEBUGGING
 10 .debug_loc    00002174  00000000  00000000  0000a1cc  2**0
                  CONTENTS, READONLY, DEBUGGING
 11 .debug_ranges 00000080  00000000  00000000  0000c340  2**0
                  CONTENTS, READONLY, DEBUGGING

Disassembly of section .text:

00000000 <__vectors>:
       0:	0c 94 2a 00 	jmp	0x54	; 0x54 <__ctors_end>
       4:	0c 94 47 00 	jmp	0x8e	; 0x8e <__bad_interrupt>
       8:	0c 94 47 00 	jmp	0x8e	; 0x8e <__bad_interrupt>
       c:	0c 94 47 00 	jmp	0x8e	; 0x8e <__bad_interrupt>
      10:	0c 94 cb 1b 	jmp	0x3796	; 0x3796 <__vector_4>
      14:	0c 94 a2 1b 	jmp	0x3744	; 0x3744 <__vector_5>
      18:	0c 94 79 1b 	jmp	0x36f2	; 0x36f2 <__vector_6>
      1c:	0c 94 50 1b 	jmp	0x36a0	; 0x36a0 <__vector_7>
      20:	0c 94 27 1b 	jmp	0x364e	; 0x364e <__vector_8>
      24:	0c 94 fe 1a 	jmp	0x35fc	; 0x35fc <__vector_9>
      28:	0c 94 d5 1a 	jmp	0x35aa	; 0x35aa <__vector_10>
      2c:	0c 94 ac 1a 	jmp	0x3558	; 0x3558 <__vector_11>
      30:	0c 94 47 00 	jmp	0x8e	; 0x8e <__bad_interrupt>
      34:	0c 94 e7 1c 	jmp	0x39ce	; 0x39ce <__vector_13>
      38:	0c 94 47 00 	jmp	0x8e	; 0x8e <__bad_interrupt>
      3c:	0c 94 26 1d 	jmp	0x3a4c	; 0x3a4c <__vector_15>
      40:	0c 94 68 13 	jmp	0x26d0	; 0x26d0 <__vector_16>
      44:	0c 94 47 00 	jmp	0x8e	; 0x8e <__bad_interrupt>
      48:	0c 94 47 00 	jmp	0x8e	; 0x8e <__bad_interrupt>
      4c:	0c 94 47 00 	jmp	0x8e	; 0x8e <__bad_interrupt>
      50:	0c 94 47 00 	jmp	0x8e	; 0x8e <__bad_interrupt>

00000054 <__ctors_end>:
      54:	11 24       	eor	r1, r1
      56:	1f be       	out	0x3f, r1	; 63
      58:	cf e5       	ldi	r28, 0x5F	; 95
      5a:	d8 e0       	ldi	r29, 0x08	; 8
      5c:	de bf       	out	0x3e, r29	; 62
      5e:	cd bf       	out	0x3d, r28	; 61

00000060 <__do_copy_data>:
      60:	12 e0       	ldi	r17, 0x02	; 2
      62:	a0 e6       	ldi	r26, 0x60	; 96
      64:	b0 e0       	ldi	r27, 0x00	; 0
      66:	ee ef       	ldi	r30, 0xFE	; 254
      68:	fc e4       	ldi	r31, 0x4C	; 76
      6a:	02 c0       	rjmp	.+4      	; 0x70 <.do_copy_data_start>

0000006c <.do_copy_data_loop>:
      6c:	05 90       	lpm	r0, Z+
      6e:	0d 92       	st	X+, r0

00000070 <.do_copy_data_start>:
      70:	aa 3e       	cpi	r26, 0xEA	; 234
      72:	b1 07       	cpc	r27, r17
      74:	d9 f7       	brne	.-10     	; 0x6c <.do_copy_data_loop>

00000076 <__do_clear_bss>:
      76:	13 e0       	ldi	r17, 0x03	; 3
      78:	aa ee       	ldi	r26, 0xEA	; 234
      7a:	b2 e0       	ldi	r27, 0x02	; 2
      7c:	01 c0       	rjmp	.+2      	; 0x80 <.do_clear_bss_start>

0000007e <.do_clear_bss_loop>:
      7e:	1d 92       	st	X+, r1

00000080 <.do_clear_bss_start>:
      80:	a9 32       	cpi	r26, 0x29	; 41
      82:	b1 07       	cpc	r27, r17
      84:	e1 f7       	brne	.-8      	; 0x7e <.do_clear_bss_loop>
      86:	0e 94 43 1e 	call	0x3c86	; 0x3c86 <main>
      8a:	0c 94 7d 26 	jmp	0x4cfa	; 0x4cfa <_exit>

0000008e <__bad_interrupt>:
      8e:	0c 94 00 00 	jmp	0	; 0x0 <__vectors>

00000092 <__ashldi3>:
      92:	ef 92       	push	r14
      94:	ff 92       	push	r15
      96:	0f 93       	push	r16
      98:	df 93       	push	r29
      9a:	cf 93       	push	r28
      9c:	cd b7       	in	r28, 0x3d	; 61
      9e:	de b7       	in	r29, 0x3e	; 62
      a0:	60 97       	sbiw	r28, 0x10	; 16
      a2:	0f b6       	in	r0, 0x3f	; 63
      a4:	f8 94       	cli
      a6:	de bf       	out	0x3e, r29	; 62
      a8:	0f be       	out	0x3f, r0	; 63
      aa:	cd bf       	out	0x3d, r28	; 61
      ac:	a8 2f       	mov	r26, r24
      ae:	00 23       	and	r16, r16
      b0:	09 f4       	brne	.+2      	; 0xb4 <__ashldi3+0x22>
      b2:	61 c0       	rjmp	.+194    	; 0x176 <__ashldi3+0xe4>
      b4:	7e 01       	movw	r14, r28
      b6:	08 94       	sec
      b8:	e1 1c       	adc	r14, r1
      ba:	f1 1c       	adc	r15, r1
      bc:	88 e0       	ldi	r24, 0x08	; 8
      be:	f7 01       	movw	r30, r14
      c0:	11 92       	st	Z+, r1
      c2:	8a 95       	dec	r24
      c4:	e9 f7       	brne	.-6      	; 0xc0 <__ashldi3+0x2e>
      c6:	29 83       	std	Y+1, r18	; 0x01
      c8:	3a 83       	std	Y+2, r19	; 0x02
      ca:	4b 83       	std	Y+3, r20	; 0x03
      cc:	5c 83       	std	Y+4, r21	; 0x04
      ce:	6d 83       	std	Y+5, r22	; 0x05
      d0:	7e 83       	std	Y+6, r23	; 0x06
      d2:	af 83       	std	Y+7, r26	; 0x07
      d4:	98 87       	std	Y+8, r25	; 0x08
      d6:	80 e2       	ldi	r24, 0x20	; 32
      d8:	80 1b       	sub	r24, r16
      da:	e8 2f       	mov	r30, r24
      dc:	ff 27       	eor	r31, r31
      de:	e7 fd       	sbrc	r30, 7
      e0:	f0 95       	com	r31
      e2:	49 81       	ldd	r20, Y+1	; 0x01
      e4:	5a 81       	ldd	r21, Y+2	; 0x02
      e6:	6b 81       	ldd	r22, Y+3	; 0x03
      e8:	7c 81       	ldd	r23, Y+4	; 0x04
      ea:	18 16       	cp	r1, r24
      ec:	84 f0       	brlt	.+32     	; 0x10e <__ashldi3+0x7c>
      ee:	19 86       	std	Y+9, r1	; 0x09
      f0:	1a 86       	std	Y+10, r1	; 0x0a
      f2:	1b 86       	std	Y+11, r1	; 0x0b
      f4:	1c 86       	std	Y+12, r1	; 0x0c
      f6:	88 27       	eor	r24, r24
      f8:	99 27       	eor	r25, r25
      fa:	8e 1b       	sub	r24, r30
      fc:	9f 0b       	sbc	r25, r31
      fe:	04 c0       	rjmp	.+8      	; 0x108 <__ashldi3+0x76>
     100:	44 0f       	add	r20, r20
     102:	55 1f       	adc	r21, r21
     104:	66 1f       	adc	r22, r22
     106:	77 1f       	adc	r23, r23
     108:	8a 95       	dec	r24
     10a:	d2 f7       	brpl	.-12     	; 0x100 <__ashldi3+0x6e>
     10c:	28 c0       	rjmp	.+80     	; 0x15e <__ashldi3+0xcc>
     10e:	20 2f       	mov	r18, r16
     110:	33 27       	eor	r19, r19
     112:	27 fd       	sbrc	r18, 7
     114:	30 95       	com	r19
     116:	db 01       	movw	r26, r22
     118:	ca 01       	movw	r24, r20
     11a:	02 2e       	mov	r0, r18
     11c:	04 c0       	rjmp	.+8      	; 0x126 <__ashldi3+0x94>
     11e:	88 0f       	add	r24, r24
     120:	99 1f       	adc	r25, r25
     122:	aa 1f       	adc	r26, r26
     124:	bb 1f       	adc	r27, r27
     126:	0a 94       	dec	r0
     128:	d2 f7       	brpl	.-12     	; 0x11e <__ashldi3+0x8c>
     12a:	89 87       	std	Y+9, r24	; 0x09
     12c:	9a 87       	std	Y+10, r25	; 0x0a
     12e:	ab 87       	std	Y+11, r26	; 0x0b
     130:	bc 87       	std	Y+12, r27	; 0x0c
     132:	04 c0       	rjmp	.+8      	; 0x13c <__ashldi3+0xaa>
     134:	76 95       	lsr	r23
     136:	67 95       	ror	r22
     138:	57 95       	ror	r21
     13a:	47 95       	ror	r20
     13c:	ea 95       	dec	r30
     13e:	d2 f7       	brpl	.-12     	; 0x134 <__ashldi3+0xa2>
     140:	8d 81       	ldd	r24, Y+5	; 0x05
     142:	9e 81       	ldd	r25, Y+6	; 0x06
     144:	af 81       	ldd	r26, Y+7	; 0x07
     146:	b8 85       	ldd	r27, Y+8	; 0x08
     148:	04 c0       	rjmp	.+8      	; 0x152 <__ashldi3+0xc0>
     14a:	88 0f       	add	r24, r24
     14c:	99 1f       	adc	r25, r25
     14e:	aa 1f       	adc	r26, r26
     150:	bb 1f       	adc	r27, r27
     152:	2a 95       	dec	r18
     154:	d2 f7       	brpl	.-12     	; 0x14a <__ashldi3+0xb8>
     156:	48 2b       	or	r20, r24
     158:	59 2b       	or	r21, r25
     15a:	6a 2b       	or	r22, r26
     15c:	7b 2b       	or	r23, r27
     15e:	4d 87       	std	Y+13, r20	; 0x0d
     160:	5e 87       	std	Y+14, r21	; 0x0e
     162:	6f 87       	std	Y+15, r22	; 0x0f
     164:	78 8b       	std	Y+16, r23	; 0x10
     166:	29 85       	ldd	r18, Y+9	; 0x09
     168:	3a 85       	ldd	r19, Y+10	; 0x0a
     16a:	4b 85       	ldd	r20, Y+11	; 0x0b
     16c:	5c 85       	ldd	r21, Y+12	; 0x0c
     16e:	6d 85       	ldd	r22, Y+13	; 0x0d
     170:	7e 85       	ldd	r23, Y+14	; 0x0e
     172:	af 85       	ldd	r26, Y+15	; 0x0f
     174:	98 89       	ldd	r25, Y+16	; 0x10
     176:	8a 2f       	mov	r24, r26
     178:	60 96       	adiw	r28, 0x10	; 16
     17a:	0f b6       	in	r0, 0x3f	; 63
     17c:	f8 94       	cli
     17e:	de bf       	out	0x3e, r29	; 62
     180:	0f be       	out	0x3f, r0	; 63
     182:	cd bf       	out	0x3d, r28	; 61
     184:	cf 91       	pop	r28
     186:	df 91       	pop	r29
     188:	0f 91       	pop	r16
     18a:	ff 90       	pop	r15
     18c:	ef 90       	pop	r14
     18e:	08 95       	ret

00000190 <__fixunssfsi>:
     190:	ef 92       	push	r14
     192:	ff 92       	push	r15
     194:	0f 93       	push	r16
     196:	1f 93       	push	r17
     198:	7b 01       	movw	r14, r22
     19a:	8c 01       	movw	r16, r24
     19c:	20 e0       	ldi	r18, 0x00	; 0
     19e:	30 e0       	ldi	r19, 0x00	; 0
     1a0:	40 e0       	ldi	r20, 0x00	; 0
     1a2:	5f e4       	ldi	r21, 0x4F	; 79
     1a4:	0e 94 7d 10 	call	0x20fa	; 0x20fa <__gesf2>
     1a8:	88 23       	and	r24, r24
     1aa:	8c f0       	brlt	.+34     	; 0x1ce <__fixunssfsi+0x3e>
     1ac:	c8 01       	movw	r24, r16
     1ae:	b7 01       	movw	r22, r14
     1b0:	20 e0       	ldi	r18, 0x00	; 0
     1b2:	30 e0       	ldi	r19, 0x00	; 0
     1b4:	40 e0       	ldi	r20, 0x00	; 0
     1b6:	5f e4       	ldi	r21, 0x4F	; 79
     1b8:	0e 94 25 0f 	call	0x1e4a	; 0x1e4a <__subsf3>
     1bc:	0e 94 ad 10 	call	0x215a	; 0x215a <__fixsfsi>
     1c0:	9b 01       	movw	r18, r22
     1c2:	ac 01       	movw	r20, r24
     1c4:	20 50       	subi	r18, 0x00	; 0
     1c6:	30 40       	sbci	r19, 0x00	; 0
     1c8:	40 40       	sbci	r20, 0x00	; 0
     1ca:	50 48       	sbci	r21, 0x80	; 128
     1cc:	06 c0       	rjmp	.+12     	; 0x1da <__fixunssfsi+0x4a>
     1ce:	c8 01       	movw	r24, r16
     1d0:	b7 01       	movw	r22, r14
     1d2:	0e 94 ad 10 	call	0x215a	; 0x215a <__fixsfsi>
     1d6:	9b 01       	movw	r18, r22
     1d8:	ac 01       	movw	r20, r24
     1da:	b9 01       	movw	r22, r18
     1dc:	ca 01       	movw	r24, r20
     1de:	1f 91       	pop	r17
     1e0:	0f 91       	pop	r16
     1e2:	ff 90       	pop	r15
     1e4:	ef 90       	pop	r14
     1e6:	08 95       	ret

000001e8 <__udivdi3>:
     1e8:	ae e5       	ldi	r26, 0x5E	; 94
     1ea:	b0 e0       	ldi	r27, 0x00	; 0
     1ec:	ea ef       	ldi	r30, 0xFA	; 250
     1ee:	f0 e0       	ldi	r31, 0x00	; 0
     1f0:	0c 94 46 26 	jmp	0x4c8c	; 0x4c8c <__prologue_saves__>
     1f4:	a8 e0       	ldi	r26, 0x08	; 8
     1f6:	4e 01       	movw	r8, r28
     1f8:	08 94       	sec
     1fa:	81 1c       	adc	r8, r1
     1fc:	91 1c       	adc	r9, r1
     1fe:	f4 01       	movw	r30, r8
     200:	6a 2e       	mov	r6, r26
     202:	11 92       	st	Z+, r1
     204:	6a 94       	dec	r6
     206:	e9 f7       	brne	.-6      	; 0x202 <__udivdi3+0x1a>
     208:	29 83       	std	Y+1, r18	; 0x01
     20a:	3a 83       	std	Y+2, r19	; 0x02
     20c:	4b 83       	std	Y+3, r20	; 0x03
     20e:	5c 83       	std	Y+4, r21	; 0x04
     210:	6d 83       	std	Y+5, r22	; 0x05
     212:	7e 83       	std	Y+6, r23	; 0x06
     214:	8f 83       	std	Y+7, r24	; 0x07
     216:	98 87       	std	Y+8, r25	; 0x08
     218:	ce 01       	movw	r24, r28
     21a:	09 96       	adiw	r24, 0x09	; 9
     21c:	fc 01       	movw	r30, r24
     21e:	11 92       	st	Z+, r1
     220:	aa 95       	dec	r26
     222:	e9 f7       	brne	.-6      	; 0x21e <__udivdi3+0x36>
     224:	a9 86       	std	Y+9, r10	; 0x09
     226:	ba 86       	std	Y+10, r11	; 0x0a
     228:	cb 86       	std	Y+11, r12	; 0x0b
     22a:	dc 86       	std	Y+12, r13	; 0x0c
     22c:	ed 86       	std	Y+13, r14	; 0x0d
     22e:	fe 86       	std	Y+14, r15	; 0x0e
     230:	0f 87       	std	Y+15, r16	; 0x0f
     232:	18 8b       	std	Y+16, r17	; 0x10
     234:	29 84       	ldd	r2, Y+9	; 0x09
     236:	3a 84       	ldd	r3, Y+10	; 0x0a
     238:	4b 84       	ldd	r4, Y+11	; 0x0b
     23a:	5c 84       	ldd	r5, Y+12	; 0x0c
     23c:	ed 84       	ldd	r14, Y+13	; 0x0d
     23e:	fe 84       	ldd	r15, Y+14	; 0x0e
     240:	0f 85       	ldd	r16, Y+15	; 0x0f
     242:	18 89       	ldd	r17, Y+16	; 0x10
     244:	69 80       	ldd	r6, Y+1	; 0x01
     246:	7a 80       	ldd	r7, Y+2	; 0x02
     248:	8b 80       	ldd	r8, Y+3	; 0x03
     24a:	9c 80       	ldd	r9, Y+4	; 0x04
     24c:	6d a6       	std	Y+45, r6	; 0x2d
     24e:	7e a6       	std	Y+46, r7	; 0x2e
     250:	8f a6       	std	Y+47, r8	; 0x2f
     252:	98 aa       	std	Y+48, r9	; 0x30
     254:	6d 80       	ldd	r6, Y+5	; 0x05
     256:	7e 80       	ldd	r7, Y+6	; 0x06
     258:	8f 80       	ldd	r8, Y+7	; 0x07
     25a:	98 84       	ldd	r9, Y+8	; 0x08
     25c:	e1 14       	cp	r14, r1
     25e:	f1 04       	cpc	r15, r1
     260:	01 05       	cpc	r16, r1
     262:	11 05       	cpc	r17, r1
     264:	09 f0       	breq	.+2      	; 0x268 <__udivdi3+0x80>
     266:	b3 c3       	rjmp	.+1894   	; 0x9ce <__stack+0x16f>
     268:	62 14       	cp	r6, r2
     26a:	73 04       	cpc	r7, r3
     26c:	84 04       	cpc	r8, r4
     26e:	95 04       	cpc	r9, r5
     270:	08 f0       	brcs	.+2      	; 0x274 <__udivdi3+0x8c>
     272:	3d c1       	rjmp	.+634    	; 0x4ee <__udivdi3+0x306>
     274:	00 e0       	ldi	r16, 0x00	; 0
     276:	20 16       	cp	r2, r16
     278:	00 e0       	ldi	r16, 0x00	; 0
     27a:	30 06       	cpc	r3, r16
     27c:	01 e0       	ldi	r16, 0x01	; 1
     27e:	40 06       	cpc	r4, r16
     280:	00 e0       	ldi	r16, 0x00	; 0
     282:	50 06       	cpc	r5, r16
     284:	88 f4       	brcc	.+34     	; 0x2a8 <__udivdi3+0xc0>
     286:	1f ef       	ldi	r17, 0xFF	; 255
     288:	21 16       	cp	r2, r17
     28a:	31 04       	cpc	r3, r1
     28c:	41 04       	cpc	r4, r1
     28e:	51 04       	cpc	r5, r1
     290:	39 f0       	breq	.+14     	; 0x2a0 <__udivdi3+0xb8>
     292:	30 f0       	brcs	.+12     	; 0x2a0 <__udivdi3+0xb8>
     294:	48 e0       	ldi	r20, 0x08	; 8
     296:	e4 2e       	mov	r14, r20
     298:	f1 2c       	mov	r15, r1
     29a:	01 2d       	mov	r16, r1
     29c:	11 2d       	mov	r17, r1
     29e:	18 c0       	rjmp	.+48     	; 0x2d0 <__udivdi3+0xe8>
     2a0:	ee 24       	eor	r14, r14
     2a2:	ff 24       	eor	r15, r15
     2a4:	87 01       	movw	r16, r14
     2a6:	14 c0       	rjmp	.+40     	; 0x2d0 <__udivdi3+0xe8>
     2a8:	20 e0       	ldi	r18, 0x00	; 0
     2aa:	22 16       	cp	r2, r18
     2ac:	20 e0       	ldi	r18, 0x00	; 0
     2ae:	32 06       	cpc	r3, r18
     2b0:	20 e0       	ldi	r18, 0x00	; 0
     2b2:	42 06       	cpc	r4, r18
     2b4:	21 e0       	ldi	r18, 0x01	; 1
     2b6:	52 06       	cpc	r5, r18
     2b8:	30 f0       	brcs	.+12     	; 0x2c6 <__udivdi3+0xde>
     2ba:	38 e1       	ldi	r19, 0x18	; 24
     2bc:	e3 2e       	mov	r14, r19
     2be:	f1 2c       	mov	r15, r1
     2c0:	01 2d       	mov	r16, r1
     2c2:	11 2d       	mov	r17, r1
     2c4:	05 c0       	rjmp	.+10     	; 0x2d0 <__udivdi3+0xe8>
     2c6:	20 e1       	ldi	r18, 0x10	; 16
     2c8:	e2 2e       	mov	r14, r18
     2ca:	f1 2c       	mov	r15, r1
     2cc:	01 2d       	mov	r16, r1
     2ce:	11 2d       	mov	r17, r1
     2d0:	d2 01       	movw	r26, r4
     2d2:	c1 01       	movw	r24, r2
     2d4:	0e 2c       	mov	r0, r14
     2d6:	04 c0       	rjmp	.+8      	; 0x2e0 <__udivdi3+0xf8>
     2d8:	b6 95       	lsr	r27
     2da:	a7 95       	ror	r26
     2dc:	97 95       	ror	r25
     2de:	87 95       	ror	r24
     2e0:	0a 94       	dec	r0
     2e2:	d2 f7       	brpl	.-12     	; 0x2d8 <__udivdi3+0xf0>
     2e4:	82 57       	subi	r24, 0x72	; 114
     2e6:	9e 4f       	sbci	r25, 0xFE	; 254
     2e8:	dc 01       	movw	r26, r24
     2ea:	2c 91       	ld	r18, X
     2ec:	80 e2       	ldi	r24, 0x20	; 32
     2ee:	90 e0       	ldi	r25, 0x00	; 0
     2f0:	a0 e0       	ldi	r26, 0x00	; 0
     2f2:	b0 e0       	ldi	r27, 0x00	; 0
     2f4:	8e 19       	sub	r24, r14
     2f6:	9f 09       	sbc	r25, r15
     2f8:	a0 0b       	sbc	r26, r16
     2fa:	b1 0b       	sbc	r27, r17
     2fc:	7c 01       	movw	r14, r24
     2fe:	8d 01       	movw	r16, r26
     300:	e2 1a       	sub	r14, r18
     302:	f1 08       	sbc	r15, r1
     304:	01 09       	sbc	r16, r1
     306:	11 09       	sbc	r17, r1
     308:	e1 14       	cp	r14, r1
     30a:	f1 04       	cpc	r15, r1
     30c:	01 05       	cpc	r16, r1
     30e:	11 05       	cpc	r17, r1
     310:	a1 f1       	breq	.+104    	; 0x37a <__udivdi3+0x192>
     312:	0e 2c       	mov	r0, r14
     314:	04 c0       	rjmp	.+8      	; 0x31e <__udivdi3+0x136>
     316:	22 0c       	add	r2, r2
     318:	33 1c       	adc	r3, r3
     31a:	44 1c       	adc	r4, r4
     31c:	55 1c       	adc	r5, r5
     31e:	0a 94       	dec	r0
     320:	d2 f7       	brpl	.-12     	; 0x316 <__udivdi3+0x12e>
     322:	a4 01       	movw	r20, r8
     324:	93 01       	movw	r18, r6
     326:	0e 2c       	mov	r0, r14
     328:	04 c0       	rjmp	.+8      	; 0x332 <__udivdi3+0x14a>
     32a:	22 0f       	add	r18, r18
     32c:	33 1f       	adc	r19, r19
     32e:	44 1f       	adc	r20, r20
     330:	55 1f       	adc	r21, r21
     332:	0a 94       	dec	r0
     334:	d2 f7       	brpl	.-12     	; 0x32a <__udivdi3+0x142>
     336:	80 e2       	ldi	r24, 0x20	; 32
     338:	90 e0       	ldi	r25, 0x00	; 0
     33a:	8e 19       	sub	r24, r14
     33c:	9f 09       	sbc	r25, r15
     33e:	6d a4       	ldd	r6, Y+45	; 0x2d
     340:	7e a4       	ldd	r7, Y+46	; 0x2e
     342:	8f a4       	ldd	r8, Y+47	; 0x2f
     344:	98 a8       	ldd	r9, Y+48	; 0x30
     346:	04 c0       	rjmp	.+8      	; 0x350 <__udivdi3+0x168>
     348:	96 94       	lsr	r9
     34a:	87 94       	ror	r8
     34c:	77 94       	ror	r7
     34e:	67 94       	ror	r6
     350:	8a 95       	dec	r24
     352:	d2 f7       	brpl	.-12     	; 0x348 <__udivdi3+0x160>
     354:	62 2a       	or	r6, r18
     356:	73 2a       	or	r7, r19
     358:	84 2a       	or	r8, r20
     35a:	95 2a       	or	r9, r21
     35c:	ad a4       	ldd	r10, Y+45	; 0x2d
     35e:	be a4       	ldd	r11, Y+46	; 0x2e
     360:	cf a4       	ldd	r12, Y+47	; 0x2f
     362:	d8 a8       	ldd	r13, Y+48	; 0x30
     364:	04 c0       	rjmp	.+8      	; 0x36e <__udivdi3+0x186>
     366:	aa 0c       	add	r10, r10
     368:	bb 1c       	adc	r11, r11
     36a:	cc 1c       	adc	r12, r12
     36c:	dd 1c       	adc	r13, r13
     36e:	ea 94       	dec	r14
     370:	d2 f7       	brpl	.-12     	; 0x366 <__udivdi3+0x17e>
     372:	ad a6       	std	Y+45, r10	; 0x2d
     374:	be a6       	std	Y+46, r11	; 0x2e
     376:	cf a6       	std	Y+47, r12	; 0x2f
     378:	d8 aa       	std	Y+48, r13	; 0x30
     37a:	62 01       	movw	r12, r4
     37c:	ee 24       	eor	r14, r14
     37e:	ff 24       	eor	r15, r15
     380:	cd aa       	std	Y+53, r12	; 0x35
     382:	de aa       	std	Y+54, r13	; 0x36
     384:	ef aa       	std	Y+55, r14	; 0x37
     386:	f8 ae       	std	Y+56, r15	; 0x38
     388:	92 01       	movw	r18, r4
     38a:	81 01       	movw	r16, r2
     38c:	20 70       	andi	r18, 0x00	; 0
     38e:	30 70       	andi	r19, 0x00	; 0
     390:	09 af       	std	Y+57, r16	; 0x39
     392:	1a af       	std	Y+58, r17	; 0x3a
     394:	2b af       	std	Y+59, r18	; 0x3b
     396:	3c af       	std	Y+60, r19	; 0x3c
     398:	c4 01       	movw	r24, r8
     39a:	b3 01       	movw	r22, r6
     39c:	a7 01       	movw	r20, r14
     39e:	96 01       	movw	r18, r12
     3a0:	0e 94 24 26 	call	0x4c48	; 0x4c48 <__udivmodsi4>
     3a4:	7b 01       	movw	r14, r22
     3a6:	8c 01       	movw	r16, r24
     3a8:	c4 01       	movw	r24, r8
     3aa:	b3 01       	movw	r22, r6
     3ac:	2d a9       	ldd	r18, Y+53	; 0x35
     3ae:	3e a9       	ldd	r19, Y+54	; 0x36
     3b0:	4f a9       	ldd	r20, Y+55	; 0x37
     3b2:	58 ad       	ldd	r21, Y+56	; 0x38
     3b4:	0e 94 24 26 	call	0x4c48	; 0x4c48 <__udivmodsi4>
     3b8:	c9 01       	movw	r24, r18
     3ba:	da 01       	movw	r26, r20
     3bc:	3c 01       	movw	r6, r24
     3be:	4d 01       	movw	r8, r26
     3c0:	c4 01       	movw	r24, r8
     3c2:	b3 01       	movw	r22, r6
     3c4:	29 ad       	ldd	r18, Y+57	; 0x39
     3c6:	3a ad       	ldd	r19, Y+58	; 0x3a
     3c8:	4b ad       	ldd	r20, Y+59	; 0x3b
     3ca:	5c ad       	ldd	r21, Y+60	; 0x3c
     3cc:	0e 94 05 26 	call	0x4c0a	; 0x4c0a <__mulsi3>
     3d0:	9b 01       	movw	r18, r22
     3d2:	ac 01       	movw	r20, r24
     3d4:	87 01       	movw	r16, r14
     3d6:	ff 24       	eor	r15, r15
     3d8:	ee 24       	eor	r14, r14
     3da:	ad a4       	ldd	r10, Y+45	; 0x2d
     3dc:	be a4       	ldd	r11, Y+46	; 0x2e
     3de:	cf a4       	ldd	r12, Y+47	; 0x2f
     3e0:	d8 a8       	ldd	r13, Y+48	; 0x30
     3e2:	c6 01       	movw	r24, r12
     3e4:	aa 27       	eor	r26, r26
     3e6:	bb 27       	eor	r27, r27
     3e8:	57 01       	movw	r10, r14
     3ea:	68 01       	movw	r12, r16
     3ec:	a8 2a       	or	r10, r24
     3ee:	b9 2a       	or	r11, r25
     3f0:	ca 2a       	or	r12, r26
     3f2:	db 2a       	or	r13, r27
     3f4:	a2 16       	cp	r10, r18
     3f6:	b3 06       	cpc	r11, r19
     3f8:	c4 06       	cpc	r12, r20
     3fa:	d5 06       	cpc	r13, r21
     3fc:	e0 f4       	brcc	.+56     	; 0x436 <__udivdi3+0x24e>
     3fe:	08 94       	sec
     400:	61 08       	sbc	r6, r1
     402:	71 08       	sbc	r7, r1
     404:	81 08       	sbc	r8, r1
     406:	91 08       	sbc	r9, r1
     408:	a2 0c       	add	r10, r2
     40a:	b3 1c       	adc	r11, r3
     40c:	c4 1c       	adc	r12, r4
     40e:	d5 1c       	adc	r13, r5
     410:	a2 14       	cp	r10, r2
     412:	b3 04       	cpc	r11, r3
     414:	c4 04       	cpc	r12, r4
     416:	d5 04       	cpc	r13, r5
     418:	70 f0       	brcs	.+28     	; 0x436 <__udivdi3+0x24e>
     41a:	a2 16       	cp	r10, r18
     41c:	b3 06       	cpc	r11, r19
     41e:	c4 06       	cpc	r12, r20
     420:	d5 06       	cpc	r13, r21
     422:	48 f4       	brcc	.+18     	; 0x436 <__udivdi3+0x24e>
     424:	08 94       	sec
     426:	61 08       	sbc	r6, r1
     428:	71 08       	sbc	r7, r1
     42a:	81 08       	sbc	r8, r1
     42c:	91 08       	sbc	r9, r1
     42e:	a2 0c       	add	r10, r2
     430:	b3 1c       	adc	r11, r3
     432:	c4 1c       	adc	r12, r4
     434:	d5 1c       	adc	r13, r5
     436:	a2 1a       	sub	r10, r18
     438:	b3 0a       	sbc	r11, r19
     43a:	c4 0a       	sbc	r12, r20
     43c:	d5 0a       	sbc	r13, r21
     43e:	c6 01       	movw	r24, r12
     440:	b5 01       	movw	r22, r10
     442:	2d a9       	ldd	r18, Y+53	; 0x35
     444:	3e a9       	ldd	r19, Y+54	; 0x36
     446:	4f a9       	ldd	r20, Y+55	; 0x37
     448:	58 ad       	ldd	r21, Y+56	; 0x38
     44a:	0e 94 24 26 	call	0x4c48	; 0x4c48 <__udivmodsi4>
     44e:	7b 01       	movw	r14, r22
     450:	8c 01       	movw	r16, r24
     452:	c6 01       	movw	r24, r12
     454:	b5 01       	movw	r22, r10
     456:	2d a9       	ldd	r18, Y+53	; 0x35
     458:	3e a9       	ldd	r19, Y+54	; 0x36
     45a:	4f a9       	ldd	r20, Y+55	; 0x37
     45c:	58 ad       	ldd	r21, Y+56	; 0x38
     45e:	0e 94 24 26 	call	0x4c48	; 0x4c48 <__udivmodsi4>
     462:	c9 01       	movw	r24, r18
     464:	da 01       	movw	r26, r20
     466:	5c 01       	movw	r10, r24
     468:	6d 01       	movw	r12, r26
     46a:	c6 01       	movw	r24, r12
     46c:	b5 01       	movw	r22, r10
     46e:	29 ad       	ldd	r18, Y+57	; 0x39
     470:	3a ad       	ldd	r19, Y+58	; 0x3a
     472:	4b ad       	ldd	r20, Y+59	; 0x3b
     474:	5c ad       	ldd	r21, Y+60	; 0x3c
     476:	0e 94 05 26 	call	0x4c0a	; 0x4c0a <__mulsi3>
     47a:	9b 01       	movw	r18, r22
     47c:	ac 01       	movw	r20, r24
     47e:	87 01       	movw	r16, r14
     480:	ff 24       	eor	r15, r15
     482:	ee 24       	eor	r14, r14
     484:	8d a5       	ldd	r24, Y+45	; 0x2d
     486:	9e a5       	ldd	r25, Y+46	; 0x2e
     488:	af a5       	ldd	r26, Y+47	; 0x2f
     48a:	b8 a9       	ldd	r27, Y+48	; 0x30
     48c:	a0 70       	andi	r26, 0x00	; 0
     48e:	b0 70       	andi	r27, 0x00	; 0
     490:	e8 2a       	or	r14, r24
     492:	f9 2a       	or	r15, r25
     494:	0a 2b       	or	r16, r26
     496:	1b 2b       	or	r17, r27
     498:	e2 16       	cp	r14, r18
     49a:	f3 06       	cpc	r15, r19
     49c:	04 07       	cpc	r16, r20
     49e:	15 07       	cpc	r17, r21
     4a0:	c0 f4       	brcc	.+48     	; 0x4d2 <__udivdi3+0x2ea>
     4a2:	08 94       	sec
     4a4:	a1 08       	sbc	r10, r1
     4a6:	b1 08       	sbc	r11, r1
     4a8:	c1 08       	sbc	r12, r1
     4aa:	d1 08       	sbc	r13, r1
     4ac:	e2 0c       	add	r14, r2
     4ae:	f3 1c       	adc	r15, r3
     4b0:	04 1d       	adc	r16, r4
     4b2:	15 1d       	adc	r17, r5
     4b4:	e2 14       	cp	r14, r2
     4b6:	f3 04       	cpc	r15, r3
     4b8:	04 05       	cpc	r16, r4
     4ba:	15 05       	cpc	r17, r5
     4bc:	50 f0       	brcs	.+20     	; 0x4d2 <__udivdi3+0x2ea>
     4be:	e2 16       	cp	r14, r18
     4c0:	f3 06       	cpc	r15, r19
     4c2:	04 07       	cpc	r16, r20
     4c4:	15 07       	cpc	r17, r21
     4c6:	28 f4       	brcc	.+10     	; 0x4d2 <__udivdi3+0x2ea>
     4c8:	08 94       	sec
     4ca:	a1 08       	sbc	r10, r1
     4cc:	b1 08       	sbc	r11, r1
     4ce:	c1 08       	sbc	r12, r1
     4d0:	d1 08       	sbc	r13, r1
     4d2:	d3 01       	movw	r26, r6
     4d4:	99 27       	eor	r25, r25
     4d6:	88 27       	eor	r24, r24
     4d8:	86 01       	movw	r16, r12
     4da:	75 01       	movw	r14, r10
     4dc:	e8 2a       	or	r14, r24
     4de:	f9 2a       	or	r15, r25
     4e0:	0a 2b       	or	r16, r26
     4e2:	1b 2b       	or	r17, r27
     4e4:	e9 aa       	std	Y+49, r14	; 0x31
     4e6:	fa aa       	std	Y+50, r15	; 0x32
     4e8:	0b ab       	std	Y+51, r16	; 0x33
     4ea:	1c ab       	std	Y+52, r17	; 0x34
     4ec:	cf c4       	rjmp	.+2462   	; 0xe8c <__stack+0x62d>
     4ee:	21 14       	cp	r2, r1
     4f0:	31 04       	cpc	r3, r1
     4f2:	41 04       	cpc	r4, r1
     4f4:	51 04       	cpc	r5, r1
     4f6:	71 f4       	brne	.+28     	; 0x514 <__udivdi3+0x32c>
     4f8:	61 e0       	ldi	r22, 0x01	; 1
     4fa:	70 e0       	ldi	r23, 0x00	; 0
     4fc:	80 e0       	ldi	r24, 0x00	; 0
     4fe:	90 e0       	ldi	r25, 0x00	; 0
     500:	20 e0       	ldi	r18, 0x00	; 0
     502:	30 e0       	ldi	r19, 0x00	; 0
     504:	40 e0       	ldi	r20, 0x00	; 0
     506:	50 e0       	ldi	r21, 0x00	; 0
     508:	0e 94 24 26 	call	0x4c48	; 0x4c48 <__udivmodsi4>
     50c:	c9 01       	movw	r24, r18
     50e:	da 01       	movw	r26, r20
     510:	1c 01       	movw	r2, r24
     512:	2d 01       	movw	r4, r26
     514:	00 e0       	ldi	r16, 0x00	; 0
     516:	20 16       	cp	r2, r16
     518:	00 e0       	ldi	r16, 0x00	; 0
     51a:	30 06       	cpc	r3, r16
     51c:	01 e0       	ldi	r16, 0x01	; 1
     51e:	40 06       	cpc	r4, r16
     520:	00 e0       	ldi	r16, 0x00	; 0
     522:	50 06       	cpc	r5, r16
     524:	88 f4       	brcc	.+34     	; 0x548 <__udivdi3+0x360>
     526:	1f ef       	ldi	r17, 0xFF	; 255
     528:	21 16       	cp	r2, r17
     52a:	31 04       	cpc	r3, r1
     52c:	41 04       	cpc	r4, r1
     52e:	51 04       	cpc	r5, r1
     530:	31 f0       	breq	.+12     	; 0x53e <__udivdi3+0x356>
     532:	28 f0       	brcs	.+10     	; 0x53e <__udivdi3+0x356>
     534:	48 e0       	ldi	r20, 0x08	; 8
     536:	50 e0       	ldi	r21, 0x00	; 0
     538:	60 e0       	ldi	r22, 0x00	; 0
     53a:	70 e0       	ldi	r23, 0x00	; 0
     53c:	17 c0       	rjmp	.+46     	; 0x56c <__udivdi3+0x384>
     53e:	40 e0       	ldi	r20, 0x00	; 0
     540:	50 e0       	ldi	r21, 0x00	; 0
     542:	60 e0       	ldi	r22, 0x00	; 0
     544:	70 e0       	ldi	r23, 0x00	; 0
     546:	12 c0       	rjmp	.+36     	; 0x56c <__udivdi3+0x384>
     548:	20 e0       	ldi	r18, 0x00	; 0
     54a:	22 16       	cp	r2, r18
     54c:	20 e0       	ldi	r18, 0x00	; 0
     54e:	32 06       	cpc	r3, r18
     550:	20 e0       	ldi	r18, 0x00	; 0
     552:	42 06       	cpc	r4, r18
     554:	21 e0       	ldi	r18, 0x01	; 1
     556:	52 06       	cpc	r5, r18
     558:	28 f0       	brcs	.+10     	; 0x564 <__udivdi3+0x37c>
     55a:	48 e1       	ldi	r20, 0x18	; 24
     55c:	50 e0       	ldi	r21, 0x00	; 0
     55e:	60 e0       	ldi	r22, 0x00	; 0
     560:	70 e0       	ldi	r23, 0x00	; 0
     562:	04 c0       	rjmp	.+8      	; 0x56c <__udivdi3+0x384>
     564:	40 e1       	ldi	r20, 0x10	; 16
     566:	50 e0       	ldi	r21, 0x00	; 0
     568:	60 e0       	ldi	r22, 0x00	; 0
     56a:	70 e0       	ldi	r23, 0x00	; 0
     56c:	d2 01       	movw	r26, r4
     56e:	c1 01       	movw	r24, r2
     570:	04 2e       	mov	r0, r20
     572:	04 c0       	rjmp	.+8      	; 0x57c <__udivdi3+0x394>
     574:	b6 95       	lsr	r27
     576:	a7 95       	ror	r26
     578:	97 95       	ror	r25
     57a:	87 95       	ror	r24
     57c:	0a 94       	dec	r0
     57e:	d2 f7       	brpl	.-12     	; 0x574 <__udivdi3+0x38c>
     580:	82 57       	subi	r24, 0x72	; 114
     582:	9e 4f       	sbci	r25, 0xFE	; 254
     584:	dc 01       	movw	r26, r24
     586:	2c 91       	ld	r18, X
     588:	e0 e2       	ldi	r30, 0x20	; 32
     58a:	ee 2e       	mov	r14, r30
     58c:	f1 2c       	mov	r15, r1
     58e:	01 2d       	mov	r16, r1
     590:	11 2d       	mov	r17, r1
     592:	d8 01       	movw	r26, r16
     594:	c7 01       	movw	r24, r14
     596:	84 1b       	sub	r24, r20
     598:	95 0b       	sbc	r25, r21
     59a:	a6 0b       	sbc	r26, r22
     59c:	b7 0b       	sbc	r27, r23
     59e:	82 1b       	sub	r24, r18
     5a0:	91 09       	sbc	r25, r1
     5a2:	a1 09       	sbc	r26, r1
     5a4:	b1 09       	sbc	r27, r1
     5a6:	00 97       	sbiw	r24, 0x00	; 0
     5a8:	a1 05       	cpc	r26, r1
     5aa:	b1 05       	cpc	r27, r1
     5ac:	61 f4       	brne	.+24     	; 0x5c6 <__udivdi3+0x3de>
     5ae:	64 01       	movw	r12, r8
     5b0:	53 01       	movw	r10, r6
     5b2:	a2 18       	sub	r10, r2
     5b4:	b3 08       	sbc	r11, r3
     5b6:	c4 08       	sbc	r12, r4
     5b8:	d5 08       	sbc	r13, r5
     5ba:	31 e0       	ldi	r19, 0x01	; 1
     5bc:	63 2e       	mov	r6, r19
     5be:	71 2c       	mov	r7, r1
     5c0:	81 2c       	mov	r8, r1
     5c2:	91 2c       	mov	r9, r1
     5c4:	1e c1       	rjmp	.+572    	; 0x802 <__udivdi3+0x61a>
     5c6:	6f 96       	adiw	r28, 0x1f	; 31
     5c8:	8f af       	std	Y+63, r24	; 0x3f
     5ca:	6f 97       	sbiw	r28, 0x1f	; 31
     5cc:	08 2e       	mov	r0, r24
     5ce:	04 c0       	rjmp	.+8      	; 0x5d8 <__udivdi3+0x3f0>
     5d0:	22 0c       	add	r2, r2
     5d2:	33 1c       	adc	r3, r3
     5d4:	44 1c       	adc	r4, r4
     5d6:	55 1c       	adc	r5, r5
     5d8:	0a 94       	dec	r0
     5da:	d2 f7       	brpl	.-12     	; 0x5d0 <__udivdi3+0x3e8>
     5dc:	ee 2d       	mov	r30, r14
     5de:	e8 1b       	sub	r30, r24
     5e0:	64 01       	movw	r12, r8
     5e2:	53 01       	movw	r10, r6
     5e4:	0e 2e       	mov	r0, r30
     5e6:	04 c0       	rjmp	.+8      	; 0x5f0 <__udivdi3+0x408>
     5e8:	d6 94       	lsr	r13
     5ea:	c7 94       	ror	r12
     5ec:	b7 94       	ror	r11
     5ee:	a7 94       	ror	r10
     5f0:	0a 94       	dec	r0
     5f2:	d2 f7       	brpl	.-12     	; 0x5e8 <__udivdi3+0x400>
     5f4:	a4 01       	movw	r20, r8
     5f6:	93 01       	movw	r18, r6
     5f8:	6f 96       	adiw	r28, 0x1f	; 31
     5fa:	0f ac       	ldd	r0, Y+63	; 0x3f
     5fc:	6f 97       	sbiw	r28, 0x1f	; 31
     5fe:	04 c0       	rjmp	.+8      	; 0x608 <__udivdi3+0x420>
     600:	22 0f       	add	r18, r18
     602:	33 1f       	adc	r19, r19
     604:	44 1f       	adc	r20, r20
     606:	55 1f       	adc	r21, r21
     608:	0a 94       	dec	r0
     60a:	d2 f7       	brpl	.-12     	; 0x600 <__udivdi3+0x418>
     60c:	6d a4       	ldd	r6, Y+45	; 0x2d
     60e:	7e a4       	ldd	r7, Y+46	; 0x2e
     610:	8f a4       	ldd	r8, Y+47	; 0x2f
     612:	98 a8       	ldd	r9, Y+48	; 0x30
     614:	0e 2e       	mov	r0, r30
     616:	04 c0       	rjmp	.+8      	; 0x620 <__udivdi3+0x438>
     618:	96 94       	lsr	r9
     61a:	87 94       	ror	r8
     61c:	77 94       	ror	r7
     61e:	67 94       	ror	r6
     620:	0a 94       	dec	r0
     622:	d2 f7       	brpl	.-12     	; 0x618 <__udivdi3+0x430>
     624:	84 01       	movw	r16, r8
     626:	73 01       	movw	r14, r6
     628:	e2 2a       	or	r14, r18
     62a:	f3 2a       	or	r15, r19
     62c:	04 2b       	or	r16, r20
     62e:	15 2b       	or	r17, r21
     630:	e9 a6       	std	Y+41, r14	; 0x29
     632:	fa a6       	std	Y+42, r15	; 0x2a
     634:	0b a7       	std	Y+43, r16	; 0x2b
     636:	1c a7       	std	Y+44, r17	; 0x2c
     638:	32 01       	movw	r6, r4
     63a:	88 24       	eor	r8, r8
     63c:	99 24       	eor	r9, r9
     63e:	92 01       	movw	r18, r4
     640:	81 01       	movw	r16, r2
     642:	20 70       	andi	r18, 0x00	; 0
     644:	30 70       	andi	r19, 0x00	; 0
     646:	21 96       	adiw	r28, 0x01	; 1
     648:	0c af       	std	Y+60, r16	; 0x3c
     64a:	1d af       	std	Y+61, r17	; 0x3d
     64c:	2e af       	std	Y+62, r18	; 0x3e
     64e:	3f af       	std	Y+63, r19	; 0x3f
     650:	21 97       	sbiw	r28, 0x01	; 1
     652:	c6 01       	movw	r24, r12
     654:	b5 01       	movw	r22, r10
     656:	a4 01       	movw	r20, r8
     658:	93 01       	movw	r18, r6
     65a:	0e 94 24 26 	call	0x4c48	; 0x4c48 <__udivmodsi4>
     65e:	7b 01       	movw	r14, r22
     660:	8c 01       	movw	r16, r24
     662:	c6 01       	movw	r24, r12
     664:	b5 01       	movw	r22, r10
     666:	a4 01       	movw	r20, r8
     668:	93 01       	movw	r18, r6
     66a:	0e 94 24 26 	call	0x4c48	; 0x4c48 <__udivmodsi4>
     66e:	c9 01       	movw	r24, r18
     670:	da 01       	movw	r26, r20
     672:	25 96       	adiw	r28, 0x05	; 5
     674:	8c af       	std	Y+60, r24	; 0x3c
     676:	9d af       	std	Y+61, r25	; 0x3d
     678:	ae af       	std	Y+62, r26	; 0x3e
     67a:	bf af       	std	Y+63, r27	; 0x3f
     67c:	25 97       	sbiw	r28, 0x05	; 5
     67e:	bc 01       	movw	r22, r24
     680:	cd 01       	movw	r24, r26
     682:	21 96       	adiw	r28, 0x01	; 1
     684:	2c ad       	ldd	r18, Y+60	; 0x3c
     686:	3d ad       	ldd	r19, Y+61	; 0x3d
     688:	4e ad       	ldd	r20, Y+62	; 0x3e
     68a:	5f ad       	ldd	r21, Y+63	; 0x3f
     68c:	21 97       	sbiw	r28, 0x01	; 1
     68e:	0e 94 05 26 	call	0x4c0a	; 0x4c0a <__mulsi3>
     692:	9b 01       	movw	r18, r22
     694:	ac 01       	movw	r20, r24
     696:	87 01       	movw	r16, r14
     698:	ff 24       	eor	r15, r15
     69a:	ee 24       	eor	r14, r14
     69c:	a9 a4       	ldd	r10, Y+41	; 0x29
     69e:	ba a4       	ldd	r11, Y+42	; 0x2a
     6a0:	cb a4       	ldd	r12, Y+43	; 0x2b
     6a2:	dc a4       	ldd	r13, Y+44	; 0x2c
     6a4:	c6 01       	movw	r24, r12
     6a6:	aa 27       	eor	r26, r26
     6a8:	bb 27       	eor	r27, r27
     6aa:	5c 01       	movw	r10, r24
     6ac:	6d 01       	movw	r12, r26
     6ae:	ae 28       	or	r10, r14
     6b0:	bf 28       	or	r11, r15
     6b2:	c0 2a       	or	r12, r16
     6b4:	d1 2a       	or	r13, r17
     6b6:	a2 16       	cp	r10, r18
     6b8:	b3 06       	cpc	r11, r19
     6ba:	c4 06       	cpc	r12, r20
     6bc:	d5 06       	cpc	r13, r21
     6be:	60 f5       	brcc	.+88     	; 0x718 <__udivdi3+0x530>
     6c0:	25 96       	adiw	r28, 0x05	; 5
     6c2:	6c ad       	ldd	r22, Y+60	; 0x3c
     6c4:	7d ad       	ldd	r23, Y+61	; 0x3d
     6c6:	8e ad       	ldd	r24, Y+62	; 0x3e
     6c8:	9f ad       	ldd	r25, Y+63	; 0x3f
     6ca:	25 97       	sbiw	r28, 0x05	; 5
     6cc:	61 50       	subi	r22, 0x01	; 1
     6ce:	70 40       	sbci	r23, 0x00	; 0
     6d0:	80 40       	sbci	r24, 0x00	; 0
     6d2:	90 40       	sbci	r25, 0x00	; 0
     6d4:	25 96       	adiw	r28, 0x05	; 5
     6d6:	6c af       	std	Y+60, r22	; 0x3c
     6d8:	7d af       	std	Y+61, r23	; 0x3d
     6da:	8e af       	std	Y+62, r24	; 0x3e
     6dc:	9f af       	std	Y+63, r25	; 0x3f
     6de:	25 97       	sbiw	r28, 0x05	; 5
     6e0:	a2 0c       	add	r10, r2
     6e2:	b3 1c       	adc	r11, r3
     6e4:	c4 1c       	adc	r12, r4
     6e6:	d5 1c       	adc	r13, r5
     6e8:	a2 14       	cp	r10, r2
     6ea:	b3 04       	cpc	r11, r3
     6ec:	c4 04       	cpc	r12, r4
     6ee:	d5 04       	cpc	r13, r5
     6f0:	98 f0       	brcs	.+38     	; 0x718 <__udivdi3+0x530>
     6f2:	a2 16       	cp	r10, r18
     6f4:	b3 06       	cpc	r11, r19
     6f6:	c4 06       	cpc	r12, r20
     6f8:	d5 06       	cpc	r13, r21
     6fa:	70 f4       	brcc	.+28     	; 0x718 <__udivdi3+0x530>
     6fc:	61 50       	subi	r22, 0x01	; 1
     6fe:	70 40       	sbci	r23, 0x00	; 0
     700:	80 40       	sbci	r24, 0x00	; 0
     702:	90 40       	sbci	r25, 0x00	; 0
     704:	25 96       	adiw	r28, 0x05	; 5
     706:	6c af       	std	Y+60, r22	; 0x3c
     708:	7d af       	std	Y+61, r23	; 0x3d
     70a:	8e af       	std	Y+62, r24	; 0x3e
     70c:	9f af       	std	Y+63, r25	; 0x3f
     70e:	25 97       	sbiw	r28, 0x05	; 5
     710:	a2 0c       	add	r10, r2
     712:	b3 1c       	adc	r11, r3
     714:	c4 1c       	adc	r12, r4
     716:	d5 1c       	adc	r13, r5
     718:	a2 1a       	sub	r10, r18
     71a:	b3 0a       	sbc	r11, r19
     71c:	c4 0a       	sbc	r12, r20
     71e:	d5 0a       	sbc	r13, r21
     720:	c6 01       	movw	r24, r12
     722:	b5 01       	movw	r22, r10
     724:	a4 01       	movw	r20, r8
     726:	93 01       	movw	r18, r6
     728:	0e 94 24 26 	call	0x4c48	; 0x4c48 <__udivmodsi4>
     72c:	7b 01       	movw	r14, r22
     72e:	8c 01       	movw	r16, r24
     730:	c6 01       	movw	r24, r12
     732:	b5 01       	movw	r22, r10
     734:	a4 01       	movw	r20, r8
     736:	93 01       	movw	r18, r6
     738:	0e 94 24 26 	call	0x4c48	; 0x4c48 <__udivmodsi4>
     73c:	c9 01       	movw	r24, r18
     73e:	da 01       	movw	r26, r20
     740:	3c 01       	movw	r6, r24
     742:	4d 01       	movw	r8, r26
     744:	c4 01       	movw	r24, r8
     746:	b3 01       	movw	r22, r6
     748:	21 96       	adiw	r28, 0x01	; 1
     74a:	2c ad       	ldd	r18, Y+60	; 0x3c
     74c:	3d ad       	ldd	r19, Y+61	; 0x3d
     74e:	4e ad       	ldd	r20, Y+62	; 0x3e
     750:	5f ad       	ldd	r21, Y+63	; 0x3f
     752:	21 97       	sbiw	r28, 0x01	; 1
     754:	0e 94 05 26 	call	0x4c0a	; 0x4c0a <__mulsi3>
     758:	9b 01       	movw	r18, r22
     75a:	ac 01       	movw	r20, r24
     75c:	87 01       	movw	r16, r14
     75e:	ff 24       	eor	r15, r15
     760:	ee 24       	eor	r14, r14
     762:	89 a5       	ldd	r24, Y+41	; 0x29
     764:	9a a5       	ldd	r25, Y+42	; 0x2a
     766:	ab a5       	ldd	r26, Y+43	; 0x2b
     768:	bc a5       	ldd	r27, Y+44	; 0x2c
     76a:	a0 70       	andi	r26, 0x00	; 0
     76c:	b0 70       	andi	r27, 0x00	; 0
     76e:	57 01       	movw	r10, r14
     770:	68 01       	movw	r12, r16
     772:	a8 2a       	or	r10, r24
     774:	b9 2a       	or	r11, r25
     776:	ca 2a       	or	r12, r26
     778:	db 2a       	or	r13, r27
     77a:	a2 16       	cp	r10, r18
     77c:	b3 06       	cpc	r11, r19
     77e:	c4 06       	cpc	r12, r20
     780:	d5 06       	cpc	r13, r21
     782:	e0 f4       	brcc	.+56     	; 0x7bc <__udivdi3+0x5d4>
     784:	08 94       	sec
     786:	61 08       	sbc	r6, r1
     788:	71 08       	sbc	r7, r1
     78a:	81 08       	sbc	r8, r1
     78c:	91 08       	sbc	r9, r1
     78e:	a2 0c       	add	r10, r2
     790:	b3 1c       	adc	r11, r3
     792:	c4 1c       	adc	r12, r4
     794:	d5 1c       	adc	r13, r5
     796:	a2 14       	cp	r10, r2
     798:	b3 04       	cpc	r11, r3
     79a:	c4 04       	cpc	r12, r4
     79c:	d5 04       	cpc	r13, r5
     79e:	70 f0       	brcs	.+28     	; 0x7bc <__udivdi3+0x5d4>
     7a0:	a2 16       	cp	r10, r18
     7a2:	b3 06       	cpc	r11, r19
     7a4:	c4 06       	cpc	r12, r20
     7a6:	d5 06       	cpc	r13, r21
     7a8:	48 f4       	brcc	.+18     	; 0x7bc <__udivdi3+0x5d4>
     7aa:	08 94       	sec
     7ac:	61 08       	sbc	r6, r1
     7ae:	71 08       	sbc	r7, r1
     7b0:	81 08       	sbc	r8, r1
     7b2:	91 08       	sbc	r9, r1
     7b4:	a2 0c       	add	r10, r2
     7b6:	b3 1c       	adc	r11, r3
     7b8:	c4 1c       	adc	r12, r4
     7ba:	d5 1c       	adc	r13, r5
     7bc:	8d a5       	ldd	r24, Y+45	; 0x2d
     7be:	9e a5       	ldd	r25, Y+46	; 0x2e
     7c0:	af a5       	ldd	r26, Y+47	; 0x2f
     7c2:	b8 a9       	ldd	r27, Y+48	; 0x30
     7c4:	6f 96       	adiw	r28, 0x1f	; 31
     7c6:	0f ac       	ldd	r0, Y+63	; 0x3f
     7c8:	6f 97       	sbiw	r28, 0x1f	; 31
     7ca:	04 c0       	rjmp	.+8      	; 0x7d4 <__udivdi3+0x5ec>
     7cc:	88 0f       	add	r24, r24
     7ce:	99 1f       	adc	r25, r25
     7d0:	aa 1f       	adc	r26, r26
     7d2:	bb 1f       	adc	r27, r27
     7d4:	0a 94       	dec	r0
     7d6:	d2 f7       	brpl	.-12     	; 0x7cc <__udivdi3+0x5e4>
     7d8:	8d a7       	std	Y+45, r24	; 0x2d
     7da:	9e a7       	std	Y+46, r25	; 0x2e
     7dc:	af a7       	std	Y+47, r26	; 0x2f
     7de:	b8 ab       	std	Y+48, r27	; 0x30
     7e0:	a2 1a       	sub	r10, r18
     7e2:	b3 0a       	sbc	r11, r19
     7e4:	c4 0a       	sbc	r12, r20
     7e6:	d5 0a       	sbc	r13, r21
     7e8:	25 96       	adiw	r28, 0x05	; 5
     7ea:	ec ac       	ldd	r14, Y+60	; 0x3c
     7ec:	fd ac       	ldd	r15, Y+61	; 0x3d
     7ee:	0e ad       	ldd	r16, Y+62	; 0x3e
     7f0:	1f ad       	ldd	r17, Y+63	; 0x3f
     7f2:	25 97       	sbiw	r28, 0x05	; 5
     7f4:	d7 01       	movw	r26, r14
     7f6:	99 27       	eor	r25, r25
     7f8:	88 27       	eor	r24, r24
     7fa:	68 2a       	or	r6, r24
     7fc:	79 2a       	or	r7, r25
     7fe:	8a 2a       	or	r8, r26
     800:	9b 2a       	or	r9, r27
     802:	82 01       	movw	r16, r4
     804:	22 27       	eor	r18, r18
     806:	33 27       	eor	r19, r19
     808:	29 96       	adiw	r28, 0x09	; 9
     80a:	0c af       	std	Y+60, r16	; 0x3c
     80c:	1d af       	std	Y+61, r17	; 0x3d
     80e:	2e af       	std	Y+62, r18	; 0x3e
     810:	3f af       	std	Y+63, r19	; 0x3f
     812:	29 97       	sbiw	r28, 0x09	; 9
     814:	a2 01       	movw	r20, r4
     816:	91 01       	movw	r18, r2
     818:	40 70       	andi	r20, 0x00	; 0
     81a:	50 70       	andi	r21, 0x00	; 0
     81c:	2d 96       	adiw	r28, 0x0d	; 13
     81e:	2c af       	std	Y+60, r18	; 0x3c
     820:	3d af       	std	Y+61, r19	; 0x3d
     822:	4e af       	std	Y+62, r20	; 0x3e
     824:	5f af       	std	Y+63, r21	; 0x3f
     826:	2d 97       	sbiw	r28, 0x0d	; 13
     828:	c6 01       	movw	r24, r12
     82a:	b5 01       	movw	r22, r10
     82c:	29 96       	adiw	r28, 0x09	; 9
     82e:	2c ad       	ldd	r18, Y+60	; 0x3c
     830:	3d ad       	ldd	r19, Y+61	; 0x3d
     832:	4e ad       	ldd	r20, Y+62	; 0x3e
     834:	5f ad       	ldd	r21, Y+63	; 0x3f
     836:	29 97       	sbiw	r28, 0x09	; 9
     838:	0e 94 24 26 	call	0x4c48	; 0x4c48 <__udivmodsi4>
     83c:	7b 01       	movw	r14, r22
     83e:	8c 01       	movw	r16, r24
     840:	c6 01       	movw	r24, r12
     842:	b5 01       	movw	r22, r10
     844:	29 96       	adiw	r28, 0x09	; 9
     846:	2c ad       	ldd	r18, Y+60	; 0x3c
     848:	3d ad       	ldd	r19, Y+61	; 0x3d
     84a:	4e ad       	ldd	r20, Y+62	; 0x3e
     84c:	5f ad       	ldd	r21, Y+63	; 0x3f
     84e:	29 97       	sbiw	r28, 0x09	; 9
     850:	0e 94 24 26 	call	0x4c48	; 0x4c48 <__udivmodsi4>
     854:	c9 01       	movw	r24, r18
     856:	da 01       	movw	r26, r20
     858:	61 96       	adiw	r28, 0x11	; 17
     85a:	8c af       	std	Y+60, r24	; 0x3c
     85c:	9d af       	std	Y+61, r25	; 0x3d
     85e:	ae af       	std	Y+62, r26	; 0x3e
     860:	bf af       	std	Y+63, r27	; 0x3f
     862:	61 97       	sbiw	r28, 0x11	; 17
     864:	bc 01       	movw	r22, r24
     866:	cd 01       	movw	r24, r26
     868:	2d 96       	adiw	r28, 0x0d	; 13
     86a:	2c ad       	ldd	r18, Y+60	; 0x3c
     86c:	3d ad       	ldd	r19, Y+61	; 0x3d
     86e:	4e ad       	ldd	r20, Y+62	; 0x3e
     870:	5f ad       	ldd	r21, Y+63	; 0x3f
     872:	2d 97       	sbiw	r28, 0x0d	; 13
     874:	0e 94 05 26 	call	0x4c0a	; 0x4c0a <__mulsi3>
     878:	9b 01       	movw	r18, r22
     87a:	ac 01       	movw	r20, r24
     87c:	87 01       	movw	r16, r14
     87e:	ff 24       	eor	r15, r15
     880:	ee 24       	eor	r14, r14
     882:	ad a4       	ldd	r10, Y+45	; 0x2d
     884:	be a4       	ldd	r11, Y+46	; 0x2e
     886:	cf a4       	ldd	r12, Y+47	; 0x2f
     888:	d8 a8       	ldd	r13, Y+48	; 0x30
     88a:	c6 01       	movw	r24, r12
     88c:	aa 27       	eor	r26, r26
     88e:	bb 27       	eor	r27, r27
     890:	57 01       	movw	r10, r14
     892:	68 01       	movw	r12, r16
     894:	a8 2a       	or	r10, r24
     896:	b9 2a       	or	r11, r25
     898:	ca 2a       	or	r12, r26
     89a:	db 2a       	or	r13, r27
     89c:	a2 16       	cp	r10, r18
     89e:	b3 06       	cpc	r11, r19
     8a0:	c4 06       	cpc	r12, r20
     8a2:	d5 06       	cpc	r13, r21
     8a4:	60 f5       	brcc	.+88     	; 0x8fe <__stack+0x9f>
     8a6:	61 96       	adiw	r28, 0x11	; 17
     8a8:	6c ad       	ldd	r22, Y+60	; 0x3c
     8aa:	7d ad       	ldd	r23, Y+61	; 0x3d
     8ac:	8e ad       	ldd	r24, Y+62	; 0x3e
     8ae:	9f ad       	ldd	r25, Y+63	; 0x3f
     8b0:	61 97       	sbiw	r28, 0x11	; 17
     8b2:	61 50       	subi	r22, 0x01	; 1
     8b4:	70 40       	sbci	r23, 0x00	; 0
     8b6:	80 40       	sbci	r24, 0x00	; 0
     8b8:	90 40       	sbci	r25, 0x00	; 0
     8ba:	61 96       	adiw	r28, 0x11	; 17
     8bc:	6c af       	std	Y+60, r22	; 0x3c
     8be:	7d af       	std	Y+61, r23	; 0x3d
     8c0:	8e af       	std	Y+62, r24	; 0x3e
     8c2:	9f af       	std	Y+63, r25	; 0x3f
     8c4:	61 97       	sbiw	r28, 0x11	; 17
     8c6:	a2 0c       	add	r10, r2
     8c8:	b3 1c       	adc	r11, r3
     8ca:	c4 1c       	adc	r12, r4
     8cc:	d5 1c       	adc	r13, r5
     8ce:	a2 14       	cp	r10, r2
     8d0:	b3 04       	cpc	r11, r3
     8d2:	c4 04       	cpc	r12, r4
     8d4:	d5 04       	cpc	r13, r5
     8d6:	98 f0       	brcs	.+38     	; 0x8fe <__stack+0x9f>
     8d8:	a2 16       	cp	r10, r18
     8da:	b3 06       	cpc	r11, r19
     8dc:	c4 06       	cpc	r12, r20
     8de:	d5 06       	cpc	r13, r21
     8e0:	70 f4       	brcc	.+28     	; 0x8fe <__stack+0x9f>
     8e2:	61 50       	subi	r22, 0x01	; 1
     8e4:	70 40       	sbci	r23, 0x00	; 0
     8e6:	80 40       	sbci	r24, 0x00	; 0
     8e8:	90 40       	sbci	r25, 0x00	; 0
     8ea:	61 96       	adiw	r28, 0x11	; 17
     8ec:	6c af       	std	Y+60, r22	; 0x3c
     8ee:	7d af       	std	Y+61, r23	; 0x3d
     8f0:	8e af       	std	Y+62, r24	; 0x3e
     8f2:	9f af       	std	Y+63, r25	; 0x3f
     8f4:	61 97       	sbiw	r28, 0x11	; 17
     8f6:	a2 0c       	add	r10, r2
     8f8:	b3 1c       	adc	r11, r3
     8fa:	c4 1c       	adc	r12, r4
     8fc:	d5 1c       	adc	r13, r5
     8fe:	a2 1a       	sub	r10, r18
     900:	b3 0a       	sbc	r11, r19
     902:	c4 0a       	sbc	r12, r20
     904:	d5 0a       	sbc	r13, r21
     906:	c6 01       	movw	r24, r12
     908:	b5 01       	movw	r22, r10
     90a:	29 96       	adiw	r28, 0x09	; 9
     90c:	2c ad       	ldd	r18, Y+60	; 0x3c
     90e:	3d ad       	ldd	r19, Y+61	; 0x3d
     910:	4e ad       	ldd	r20, Y+62	; 0x3e
     912:	5f ad       	ldd	r21, Y+63	; 0x3f
     914:	29 97       	sbiw	r28, 0x09	; 9
     916:	0e 94 24 26 	call	0x4c48	; 0x4c48 <__udivmodsi4>
     91a:	7b 01       	movw	r14, r22
     91c:	8c 01       	movw	r16, r24
     91e:	c6 01       	movw	r24, r12
     920:	b5 01       	movw	r22, r10
     922:	29 96       	adiw	r28, 0x09	; 9
     924:	2c ad       	ldd	r18, Y+60	; 0x3c
     926:	3d ad       	ldd	r19, Y+61	; 0x3d
     928:	4e ad       	ldd	r20, Y+62	; 0x3e
     92a:	5f ad       	ldd	r21, Y+63	; 0x3f
     92c:	29 97       	sbiw	r28, 0x09	; 9
     92e:	0e 94 24 26 	call	0x4c48	; 0x4c48 <__udivmodsi4>
     932:	c9 01       	movw	r24, r18
     934:	da 01       	movw	r26, r20
     936:	5c 01       	movw	r10, r24
     938:	6d 01       	movw	r12, r26
     93a:	c6 01       	movw	r24, r12
     93c:	b5 01       	movw	r22, r10
     93e:	2d 96       	adiw	r28, 0x0d	; 13
     940:	2c ad       	ldd	r18, Y+60	; 0x3c
     942:	3d ad       	ldd	r19, Y+61	; 0x3d
     944:	4e ad       	ldd	r20, Y+62	; 0x3e
     946:	5f ad       	ldd	r21, Y+63	; 0x3f
     948:	2d 97       	sbiw	r28, 0x0d	; 13
     94a:	0e 94 05 26 	call	0x4c0a	; 0x4c0a <__mulsi3>
     94e:	9b 01       	movw	r18, r22
     950:	ac 01       	movw	r20, r24
     952:	87 01       	movw	r16, r14
     954:	ff 24       	eor	r15, r15
     956:	ee 24       	eor	r14, r14
     958:	8d a5       	ldd	r24, Y+45	; 0x2d
     95a:	9e a5       	ldd	r25, Y+46	; 0x2e
     95c:	af a5       	ldd	r26, Y+47	; 0x2f
     95e:	b8 a9       	ldd	r27, Y+48	; 0x30
     960:	a0 70       	andi	r26, 0x00	; 0
     962:	b0 70       	andi	r27, 0x00	; 0
     964:	e8 2a       	or	r14, r24
     966:	f9 2a       	or	r15, r25
     968:	0a 2b       	or	r16, r26
     96a:	1b 2b       	or	r17, r27
     96c:	e2 16       	cp	r14, r18
     96e:	f3 06       	cpc	r15, r19
     970:	04 07       	cpc	r16, r20
     972:	15 07       	cpc	r17, r21
     974:	c0 f4       	brcc	.+48     	; 0x9a6 <__stack+0x147>
     976:	08 94       	sec
     978:	a1 08       	sbc	r10, r1
     97a:	b1 08       	sbc	r11, r1
     97c:	c1 08       	sbc	r12, r1
     97e:	d1 08       	sbc	r13, r1
     980:	e2 0c       	add	r14, r2
     982:	f3 1c       	adc	r15, r3
     984:	04 1d       	adc	r16, r4
     986:	15 1d       	adc	r17, r5
     988:	e2 14       	cp	r14, r2
     98a:	f3 04       	cpc	r15, r3
     98c:	04 05       	cpc	r16, r4
     98e:	15 05       	cpc	r17, r5
     990:	50 f0       	brcs	.+20     	; 0x9a6 <__stack+0x147>
     992:	e2 16       	cp	r14, r18
     994:	f3 06       	cpc	r15, r19
     996:	04 07       	cpc	r16, r20
     998:	15 07       	cpc	r17, r21
     99a:	28 f4       	brcc	.+10     	; 0x9a6 <__stack+0x147>
     99c:	08 94       	sec
     99e:	a1 08       	sbc	r10, r1
     9a0:	b1 08       	sbc	r11, r1
     9a2:	c1 08       	sbc	r12, r1
     9a4:	d1 08       	sbc	r13, r1
     9a6:	61 96       	adiw	r28, 0x11	; 17
     9a8:	ec ac       	ldd	r14, Y+60	; 0x3c
     9aa:	fd ac       	ldd	r15, Y+61	; 0x3d
     9ac:	0e ad       	ldd	r16, Y+62	; 0x3e
     9ae:	1f ad       	ldd	r17, Y+63	; 0x3f
     9b0:	61 97       	sbiw	r28, 0x11	; 17
     9b2:	d7 01       	movw	r26, r14
     9b4:	99 27       	eor	r25, r25
     9b6:	88 27       	eor	r24, r24
     9b8:	96 01       	movw	r18, r12
     9ba:	85 01       	movw	r16, r10
     9bc:	08 2b       	or	r16, r24
     9be:	19 2b       	or	r17, r25
     9c0:	2a 2b       	or	r18, r26
     9c2:	3b 2b       	or	r19, r27
     9c4:	09 ab       	std	Y+49, r16	; 0x31
     9c6:	1a ab       	std	Y+50, r17	; 0x32
     9c8:	2b ab       	std	Y+51, r18	; 0x33
     9ca:	3c ab       	std	Y+52, r19	; 0x34
     9cc:	62 c2       	rjmp	.+1220   	; 0xe92 <__stack+0x633>
     9ce:	6e 14       	cp	r6, r14
     9d0:	7f 04       	cpc	r7, r15
     9d2:	80 06       	cpc	r8, r16
     9d4:	91 06       	cpc	r9, r17
     9d6:	08 f4       	brcc	.+2      	; 0x9da <__stack+0x17b>
     9d8:	51 c2       	rjmp	.+1186   	; 0xe7c <__stack+0x61d>
     9da:	20 e0       	ldi	r18, 0x00	; 0
     9dc:	e2 16       	cp	r14, r18
     9de:	20 e0       	ldi	r18, 0x00	; 0
     9e0:	f2 06       	cpc	r15, r18
     9e2:	21 e0       	ldi	r18, 0x01	; 1
     9e4:	02 07       	cpc	r16, r18
     9e6:	20 e0       	ldi	r18, 0x00	; 0
     9e8:	12 07       	cpc	r17, r18
     9ea:	88 f4       	brcc	.+34     	; 0xa0e <__stack+0x1af>
     9ec:	3f ef       	ldi	r19, 0xFF	; 255
     9ee:	e3 16       	cp	r14, r19
     9f0:	f1 04       	cpc	r15, r1
     9f2:	01 05       	cpc	r16, r1
     9f4:	11 05       	cpc	r17, r1
     9f6:	31 f0       	breq	.+12     	; 0xa04 <__stack+0x1a5>
     9f8:	28 f0       	brcs	.+10     	; 0xa04 <__stack+0x1a5>
     9fa:	48 e0       	ldi	r20, 0x08	; 8
     9fc:	50 e0       	ldi	r21, 0x00	; 0
     9fe:	60 e0       	ldi	r22, 0x00	; 0
     a00:	70 e0       	ldi	r23, 0x00	; 0
     a02:	17 c0       	rjmp	.+46     	; 0xa32 <__stack+0x1d3>
     a04:	40 e0       	ldi	r20, 0x00	; 0
     a06:	50 e0       	ldi	r21, 0x00	; 0
     a08:	60 e0       	ldi	r22, 0x00	; 0
     a0a:	70 e0       	ldi	r23, 0x00	; 0
     a0c:	12 c0       	rjmp	.+36     	; 0xa32 <__stack+0x1d3>
     a0e:	40 e0       	ldi	r20, 0x00	; 0
     a10:	e4 16       	cp	r14, r20
     a12:	40 e0       	ldi	r20, 0x00	; 0
     a14:	f4 06       	cpc	r15, r20
     a16:	40 e0       	ldi	r20, 0x00	; 0
     a18:	04 07       	cpc	r16, r20
     a1a:	41 e0       	ldi	r20, 0x01	; 1
     a1c:	14 07       	cpc	r17, r20
     a1e:	28 f0       	brcs	.+10     	; 0xa2a <__stack+0x1cb>
     a20:	48 e1       	ldi	r20, 0x18	; 24
     a22:	50 e0       	ldi	r21, 0x00	; 0
     a24:	60 e0       	ldi	r22, 0x00	; 0
     a26:	70 e0       	ldi	r23, 0x00	; 0
     a28:	04 c0       	rjmp	.+8      	; 0xa32 <__stack+0x1d3>
     a2a:	40 e1       	ldi	r20, 0x10	; 16
     a2c:	50 e0       	ldi	r21, 0x00	; 0
     a2e:	60 e0       	ldi	r22, 0x00	; 0
     a30:	70 e0       	ldi	r23, 0x00	; 0
     a32:	d8 01       	movw	r26, r16
     a34:	c7 01       	movw	r24, r14
     a36:	04 2e       	mov	r0, r20
     a38:	04 c0       	rjmp	.+8      	; 0xa42 <__stack+0x1e3>
     a3a:	b6 95       	lsr	r27
     a3c:	a7 95       	ror	r26
     a3e:	97 95       	ror	r25
     a40:	87 95       	ror	r24
     a42:	0a 94       	dec	r0
     a44:	d2 f7       	brpl	.-12     	; 0xa3a <__stack+0x1db>
     a46:	82 57       	subi	r24, 0x72	; 114
     a48:	9e 4f       	sbci	r25, 0xFE	; 254
     a4a:	dc 01       	movw	r26, r24
     a4c:	2c 91       	ld	r18, X
     a4e:	30 e2       	ldi	r19, 0x20	; 32
     a50:	a3 2e       	mov	r10, r19
     a52:	b1 2c       	mov	r11, r1
     a54:	c1 2c       	mov	r12, r1
     a56:	d1 2c       	mov	r13, r1
     a58:	d6 01       	movw	r26, r12
     a5a:	c5 01       	movw	r24, r10
     a5c:	84 1b       	sub	r24, r20
     a5e:	95 0b       	sbc	r25, r21
     a60:	a6 0b       	sbc	r26, r22
     a62:	b7 0b       	sbc	r27, r23
     a64:	82 1b       	sub	r24, r18
     a66:	91 09       	sbc	r25, r1
     a68:	a1 09       	sbc	r26, r1
     a6a:	b1 09       	sbc	r27, r1
     a6c:	00 97       	sbiw	r24, 0x00	; 0
     a6e:	a1 05       	cpc	r26, r1
     a70:	b1 05       	cpc	r27, r1
     a72:	89 f4       	brne	.+34     	; 0xa96 <__stack+0x237>
     a74:	e6 14       	cp	r14, r6
     a76:	f7 04       	cpc	r15, r7
     a78:	08 05       	cpc	r16, r8
     a7a:	19 05       	cpc	r17, r9
     a7c:	08 f4       	brcc	.+2      	; 0xa80 <__stack+0x221>
     a7e:	f2 c1       	rjmp	.+996    	; 0xe64 <__stack+0x605>
     a80:	6d a4       	ldd	r6, Y+45	; 0x2d
     a82:	7e a4       	ldd	r7, Y+46	; 0x2e
     a84:	8f a4       	ldd	r8, Y+47	; 0x2f
     a86:	98 a8       	ldd	r9, Y+48	; 0x30
     a88:	62 14       	cp	r6, r2
     a8a:	73 04       	cpc	r7, r3
     a8c:	84 04       	cpc	r8, r4
     a8e:	95 04       	cpc	r9, r5
     a90:	08 f0       	brcs	.+2      	; 0xa94 <__stack+0x235>
     a92:	e8 c1       	rjmp	.+976    	; 0xe64 <__stack+0x605>
     a94:	f3 c1       	rjmp	.+998    	; 0xe7c <__stack+0x61d>
     a96:	6e 96       	adiw	r28, 0x1e	; 30
     a98:	8f af       	std	Y+63, r24	; 0x3f
     a9a:	6e 97       	sbiw	r28, 0x1e	; 30
     a9c:	08 2e       	mov	r0, r24
     a9e:	04 c0       	rjmp	.+8      	; 0xaa8 <__stack+0x249>
     aa0:	ee 0c       	add	r14, r14
     aa2:	ff 1c       	adc	r15, r15
     aa4:	00 1f       	adc	r16, r16
     aa6:	11 1f       	adc	r17, r17
     aa8:	0a 94       	dec	r0
     aaa:	d2 f7       	brpl	.-12     	; 0xaa0 <__stack+0x241>
     aac:	6a 2d       	mov	r22, r10
     aae:	68 1b       	sub	r22, r24
     ab0:	d2 01       	movw	r26, r4
     ab2:	c1 01       	movw	r24, r2
     ab4:	06 2e       	mov	r0, r22
     ab6:	04 c0       	rjmp	.+8      	; 0xac0 <__stack+0x261>
     ab8:	b6 95       	lsr	r27
     aba:	a7 95       	ror	r26
     abc:	97 95       	ror	r25
     abe:	87 95       	ror	r24
     ac0:	0a 94       	dec	r0
     ac2:	d2 f7       	brpl	.-12     	; 0xab8 <__stack+0x259>
     ac4:	5c 01       	movw	r10, r24
     ac6:	6d 01       	movw	r12, r26
     ac8:	ae 28       	or	r10, r14
     aca:	bf 28       	or	r11, r15
     acc:	c0 2a       	or	r12, r16
     ace:	d1 2a       	or	r13, r17
     ad0:	ad a2       	std	Y+37, r10	; 0x25
     ad2:	be a2       	std	Y+38, r11	; 0x26
     ad4:	cf a2       	std	Y+39, r12	; 0x27
     ad6:	d8 a6       	std	Y+40, r13	; 0x28
     ad8:	72 01       	movw	r14, r4
     ada:	61 01       	movw	r12, r2
     adc:	6e 96       	adiw	r28, 0x1e	; 30
     ade:	0f ac       	ldd	r0, Y+63	; 0x3f
     ae0:	6e 97       	sbiw	r28, 0x1e	; 30
     ae2:	04 c0       	rjmp	.+8      	; 0xaec <__stack+0x28d>
     ae4:	cc 0c       	add	r12, r12
     ae6:	dd 1c       	adc	r13, r13
     ae8:	ee 1c       	adc	r14, r14
     aea:	ff 1c       	adc	r15, r15
     aec:	0a 94       	dec	r0
     aee:	d2 f7       	brpl	.-12     	; 0xae4 <__stack+0x285>
     af0:	c9 a2       	std	Y+33, r12	; 0x21
     af2:	da a2       	std	Y+34, r13	; 0x22
     af4:	eb a2       	std	Y+35, r14	; 0x23
     af6:	fc a2       	std	Y+36, r15	; 0x24
     af8:	64 01       	movw	r12, r8
     afa:	53 01       	movw	r10, r6
     afc:	06 2e       	mov	r0, r22
     afe:	04 c0       	rjmp	.+8      	; 0xb08 <__stack+0x2a9>
     b00:	d6 94       	lsr	r13
     b02:	c7 94       	ror	r12
     b04:	b7 94       	ror	r11
     b06:	a7 94       	ror	r10
     b08:	0a 94       	dec	r0
     b0a:	d2 f7       	brpl	.-12     	; 0xb00 <__stack+0x2a1>
     b0c:	d4 01       	movw	r26, r8
     b0e:	c3 01       	movw	r24, r6
     b10:	6e 96       	adiw	r28, 0x1e	; 30
     b12:	0f ac       	ldd	r0, Y+63	; 0x3f
     b14:	6e 97       	sbiw	r28, 0x1e	; 30
     b16:	04 c0       	rjmp	.+8      	; 0xb20 <__stack+0x2c1>
     b18:	88 0f       	add	r24, r24
     b1a:	99 1f       	adc	r25, r25
     b1c:	aa 1f       	adc	r26, r26
     b1e:	bb 1f       	adc	r27, r27
     b20:	0a 94       	dec	r0
     b22:	d2 f7       	brpl	.-12     	; 0xb18 <__stack+0x2b9>
     b24:	ed a4       	ldd	r14, Y+45	; 0x2d
     b26:	fe a4       	ldd	r15, Y+46	; 0x2e
     b28:	0f a5       	ldd	r16, Y+47	; 0x2f
     b2a:	18 a9       	ldd	r17, Y+48	; 0x30
     b2c:	04 c0       	rjmp	.+8      	; 0xb36 <__stack+0x2d7>
     b2e:	16 95       	lsr	r17
     b30:	07 95       	ror	r16
     b32:	f7 94       	ror	r15
     b34:	e7 94       	ror	r14
     b36:	6a 95       	dec	r22
     b38:	d2 f7       	brpl	.-12     	; 0xb2e <__stack+0x2cf>
     b3a:	37 01       	movw	r6, r14
     b3c:	48 01       	movw	r8, r16
     b3e:	68 2a       	or	r6, r24
     b40:	79 2a       	or	r7, r25
     b42:	8a 2a       	or	r8, r26
     b44:	9b 2a       	or	r9, r27
     b46:	6d 8e       	std	Y+29, r6	; 0x1d
     b48:	7e 8e       	std	Y+30, r7	; 0x1e
     b4a:	8f 8e       	std	Y+31, r8	; 0x1f
     b4c:	98 a2       	std	Y+32, r9	; 0x20
     b4e:	ed a0       	ldd	r14, Y+37	; 0x25
     b50:	fe a0       	ldd	r15, Y+38	; 0x26
     b52:	0f a1       	ldd	r16, Y+39	; 0x27
     b54:	18 a5       	ldd	r17, Y+40	; 0x28
     b56:	38 01       	movw	r6, r16
     b58:	88 24       	eor	r8, r8
     b5a:	99 24       	eor	r9, r9
     b5c:	98 01       	movw	r18, r16
     b5e:	87 01       	movw	r16, r14
     b60:	20 70       	andi	r18, 0x00	; 0
     b62:	30 70       	andi	r19, 0x00	; 0
     b64:	65 96       	adiw	r28, 0x15	; 21
     b66:	0c af       	std	Y+60, r16	; 0x3c
     b68:	1d af       	std	Y+61, r17	; 0x3d
     b6a:	2e af       	std	Y+62, r18	; 0x3e
     b6c:	3f af       	std	Y+63, r19	; 0x3f
     b6e:	65 97       	sbiw	r28, 0x15	; 21
     b70:	c6 01       	movw	r24, r12
     b72:	b5 01       	movw	r22, r10
     b74:	a4 01       	movw	r20, r8
     b76:	93 01       	movw	r18, r6
     b78:	0e 94 24 26 	call	0x4c48	; 0x4c48 <__udivmodsi4>
     b7c:	7b 01       	movw	r14, r22
     b7e:	8c 01       	movw	r16, r24
     b80:	c6 01       	movw	r24, r12
     b82:	b5 01       	movw	r22, r10
     b84:	a4 01       	movw	r20, r8
     b86:	93 01       	movw	r18, r6
     b88:	0e 94 24 26 	call	0x4c48	; 0x4c48 <__udivmodsi4>
     b8c:	c9 01       	movw	r24, r18
     b8e:	da 01       	movw	r26, r20
     b90:	1c 01       	movw	r2, r24
     b92:	2d 01       	movw	r4, r26
     b94:	c2 01       	movw	r24, r4
     b96:	b1 01       	movw	r22, r2
     b98:	65 96       	adiw	r28, 0x15	; 21
     b9a:	2c ad       	ldd	r18, Y+60	; 0x3c
     b9c:	3d ad       	ldd	r19, Y+61	; 0x3d
     b9e:	4e ad       	ldd	r20, Y+62	; 0x3e
     ba0:	5f ad       	ldd	r21, Y+63	; 0x3f
     ba2:	65 97       	sbiw	r28, 0x15	; 21
     ba4:	0e 94 05 26 	call	0x4c0a	; 0x4c0a <__mulsi3>
     ba8:	9b 01       	movw	r18, r22
     baa:	ac 01       	movw	r20, r24
     bac:	87 01       	movw	r16, r14
     bae:	ff 24       	eor	r15, r15
     bb0:	ee 24       	eor	r14, r14
     bb2:	ad 8c       	ldd	r10, Y+29	; 0x1d
     bb4:	be 8c       	ldd	r11, Y+30	; 0x1e
     bb6:	cf 8c       	ldd	r12, Y+31	; 0x1f
     bb8:	d8 a0       	ldd	r13, Y+32	; 0x20
     bba:	c6 01       	movw	r24, r12
     bbc:	aa 27       	eor	r26, r26
     bbe:	bb 27       	eor	r27, r27
     bc0:	57 01       	movw	r10, r14
     bc2:	68 01       	movw	r12, r16
     bc4:	a8 2a       	or	r10, r24
     bc6:	b9 2a       	or	r11, r25
     bc8:	ca 2a       	or	r12, r26
     bca:	db 2a       	or	r13, r27
     bcc:	a2 16       	cp	r10, r18
     bce:	b3 06       	cpc	r11, r19
     bd0:	c4 06       	cpc	r12, r20
     bd2:	d5 06       	cpc	r13, r21
     bd4:	00 f5       	brcc	.+64     	; 0xc16 <__stack+0x3b7>
     bd6:	08 94       	sec
     bd8:	21 08       	sbc	r2, r1
     bda:	31 08       	sbc	r3, r1
     bdc:	41 08       	sbc	r4, r1
     bde:	51 08       	sbc	r5, r1
     be0:	ed a0       	ldd	r14, Y+37	; 0x25
     be2:	fe a0       	ldd	r15, Y+38	; 0x26
     be4:	0f a1       	ldd	r16, Y+39	; 0x27
     be6:	18 a5       	ldd	r17, Y+40	; 0x28
     be8:	ae 0c       	add	r10, r14
     bea:	bf 1c       	adc	r11, r15
     bec:	c0 1e       	adc	r12, r16
     bee:	d1 1e       	adc	r13, r17
     bf0:	ae 14       	cp	r10, r14
     bf2:	bf 04       	cpc	r11, r15
     bf4:	c0 06       	cpc	r12, r16
     bf6:	d1 06       	cpc	r13, r17
     bf8:	70 f0       	brcs	.+28     	; 0xc16 <__stack+0x3b7>
     bfa:	a2 16       	cp	r10, r18
     bfc:	b3 06       	cpc	r11, r19
     bfe:	c4 06       	cpc	r12, r20
     c00:	d5 06       	cpc	r13, r21
     c02:	48 f4       	brcc	.+18     	; 0xc16 <__stack+0x3b7>
     c04:	08 94       	sec
     c06:	21 08       	sbc	r2, r1
     c08:	31 08       	sbc	r3, r1
     c0a:	41 08       	sbc	r4, r1
     c0c:	51 08       	sbc	r5, r1
     c0e:	ae 0c       	add	r10, r14
     c10:	bf 1c       	adc	r11, r15
     c12:	c0 1e       	adc	r12, r16
     c14:	d1 1e       	adc	r13, r17
     c16:	a2 1a       	sub	r10, r18
     c18:	b3 0a       	sbc	r11, r19
     c1a:	c4 0a       	sbc	r12, r20
     c1c:	d5 0a       	sbc	r13, r21
     c1e:	c6 01       	movw	r24, r12
     c20:	b5 01       	movw	r22, r10
     c22:	a4 01       	movw	r20, r8
     c24:	93 01       	movw	r18, r6
     c26:	0e 94 24 26 	call	0x4c48	; 0x4c48 <__udivmodsi4>
     c2a:	7b 01       	movw	r14, r22
     c2c:	8c 01       	movw	r16, r24
     c2e:	c6 01       	movw	r24, r12
     c30:	b5 01       	movw	r22, r10
     c32:	a4 01       	movw	r20, r8
     c34:	93 01       	movw	r18, r6
     c36:	0e 94 24 26 	call	0x4c48	; 0x4c48 <__udivmodsi4>
     c3a:	c9 01       	movw	r24, r18
     c3c:	da 01       	movw	r26, r20
     c3e:	3c 01       	movw	r6, r24
     c40:	4d 01       	movw	r8, r26
     c42:	c4 01       	movw	r24, r8
     c44:	b3 01       	movw	r22, r6
     c46:	65 96       	adiw	r28, 0x15	; 21
     c48:	2c ad       	ldd	r18, Y+60	; 0x3c
     c4a:	3d ad       	ldd	r19, Y+61	; 0x3d
     c4c:	4e ad       	ldd	r20, Y+62	; 0x3e
     c4e:	5f ad       	ldd	r21, Y+63	; 0x3f
     c50:	65 97       	sbiw	r28, 0x15	; 21
     c52:	0e 94 05 26 	call	0x4c0a	; 0x4c0a <__mulsi3>
     c56:	9b 01       	movw	r18, r22
     c58:	ac 01       	movw	r20, r24
     c5a:	87 01       	movw	r16, r14
     c5c:	ff 24       	eor	r15, r15
     c5e:	ee 24       	eor	r14, r14
     c60:	8d 8d       	ldd	r24, Y+29	; 0x1d
     c62:	9e 8d       	ldd	r25, Y+30	; 0x1e
     c64:	af 8d       	ldd	r26, Y+31	; 0x1f
     c66:	b8 a1       	ldd	r27, Y+32	; 0x20
     c68:	a0 70       	andi	r26, 0x00	; 0
     c6a:	b0 70       	andi	r27, 0x00	; 0
     c6c:	57 01       	movw	r10, r14
     c6e:	68 01       	movw	r12, r16
     c70:	a8 2a       	or	r10, r24
     c72:	b9 2a       	or	r11, r25
     c74:	ca 2a       	or	r12, r26
     c76:	db 2a       	or	r13, r27
     c78:	a2 16       	cp	r10, r18
     c7a:	b3 06       	cpc	r11, r19
     c7c:	c4 06       	cpc	r12, r20
     c7e:	d5 06       	cpc	r13, r21
     c80:	00 f5       	brcc	.+64     	; 0xcc2 <__stack+0x463>
     c82:	08 94       	sec
     c84:	61 08       	sbc	r6, r1
     c86:	71 08       	sbc	r7, r1
     c88:	81 08       	sbc	r8, r1
     c8a:	91 08       	sbc	r9, r1
     c8c:	6d a1       	ldd	r22, Y+37	; 0x25
     c8e:	7e a1       	ldd	r23, Y+38	; 0x26
     c90:	8f a1       	ldd	r24, Y+39	; 0x27
     c92:	98 a5       	ldd	r25, Y+40	; 0x28
     c94:	a6 0e       	add	r10, r22
     c96:	b7 1e       	adc	r11, r23
     c98:	c8 1e       	adc	r12, r24
     c9a:	d9 1e       	adc	r13, r25
     c9c:	a6 16       	cp	r10, r22
     c9e:	b7 06       	cpc	r11, r23
     ca0:	c8 06       	cpc	r12, r24
     ca2:	d9 06       	cpc	r13, r25
     ca4:	70 f0       	brcs	.+28     	; 0xcc2 <__stack+0x463>
     ca6:	a2 16       	cp	r10, r18
     ca8:	b3 06       	cpc	r11, r19
     caa:	c4 06       	cpc	r12, r20
     cac:	d5 06       	cpc	r13, r21
     cae:	48 f4       	brcc	.+18     	; 0xcc2 <__stack+0x463>
     cb0:	08 94       	sec
     cb2:	61 08       	sbc	r6, r1
     cb4:	71 08       	sbc	r7, r1
     cb6:	81 08       	sbc	r8, r1
     cb8:	91 08       	sbc	r9, r1
     cba:	a6 0e       	add	r10, r22
     cbc:	b7 1e       	adc	r11, r23
     cbe:	c8 1e       	adc	r12, r24
     cc0:	d9 1e       	adc	r13, r25
     cc2:	d6 01       	movw	r26, r12
     cc4:	c5 01       	movw	r24, r10
     cc6:	82 1b       	sub	r24, r18
     cc8:	93 0b       	sbc	r25, r19
     cca:	a4 0b       	sbc	r26, r20
     ccc:	b5 0b       	sbc	r27, r21
     cce:	89 8f       	std	Y+25, r24	; 0x19
     cd0:	9a 8f       	std	Y+26, r25	; 0x1a
     cd2:	ab 8f       	std	Y+27, r26	; 0x1b
     cd4:	bc 8f       	std	Y+28, r27	; 0x1c
     cd6:	d1 01       	movw	r26, r2
     cd8:	99 27       	eor	r25, r25
     cda:	88 27       	eor	r24, r24
     cdc:	64 01       	movw	r12, r8
     cde:	53 01       	movw	r10, r6
     ce0:	a8 2a       	or	r10, r24
     ce2:	b9 2a       	or	r11, r25
     ce4:	ca 2a       	or	r12, r26
     ce6:	db 2a       	or	r13, r27
     ce8:	a9 aa       	std	Y+49, r10	; 0x31
     cea:	ba aa       	std	Y+50, r11	; 0x32
     cec:	cb aa       	std	Y+51, r12	; 0x33
     cee:	dc aa       	std	Y+52, r13	; 0x34
     cf0:	86 01       	movw	r16, r12
     cf2:	75 01       	movw	r14, r10
     cf4:	2f ef       	ldi	r18, 0xFF	; 255
     cf6:	3f ef       	ldi	r19, 0xFF	; 255
     cf8:	40 e0       	ldi	r20, 0x00	; 0
     cfa:	50 e0       	ldi	r21, 0x00	; 0
     cfc:	e2 22       	and	r14, r18
     cfe:	f3 22       	and	r15, r19
     d00:	04 23       	and	r16, r20
     d02:	15 23       	and	r17, r21
     d04:	a6 01       	movw	r20, r12
     d06:	66 27       	eor	r22, r22
     d08:	77 27       	eor	r23, r23
     d0a:	6d 96       	adiw	r28, 0x1d	; 29
     d0c:	4c af       	std	Y+60, r20	; 0x3c
     d0e:	5d af       	std	Y+61, r21	; 0x3d
     d10:	6e af       	std	Y+62, r22	; 0x3e
     d12:	7f af       	std	Y+63, r23	; 0x3f
     d14:	6d 97       	sbiw	r28, 0x1d	; 29
     d16:	a9 a0       	ldd	r10, Y+33	; 0x21
     d18:	ba a0       	ldd	r11, Y+34	; 0x22
     d1a:	cb a0       	ldd	r12, Y+35	; 0x23
     d1c:	dc a0       	ldd	r13, Y+36	; 0x24
     d1e:	6f ef       	ldi	r22, 0xFF	; 255
     d20:	7f ef       	ldi	r23, 0xFF	; 255
     d22:	80 e0       	ldi	r24, 0x00	; 0
     d24:	90 e0       	ldi	r25, 0x00	; 0
     d26:	a6 22       	and	r10, r22
     d28:	b7 22       	and	r11, r23
     d2a:	c8 22       	and	r12, r24
     d2c:	d9 22       	and	r13, r25
     d2e:	89 a1       	ldd	r24, Y+33	; 0x21
     d30:	9a a1       	ldd	r25, Y+34	; 0x22
     d32:	ab a1       	ldd	r26, Y+35	; 0x23
     d34:	bc a1       	ldd	r27, Y+36	; 0x24
     d36:	1d 01       	movw	r2, r26
     d38:	44 24       	eor	r4, r4
     d3a:	55 24       	eor	r5, r5
     d3c:	c8 01       	movw	r24, r16
     d3e:	b7 01       	movw	r22, r14
     d40:	a6 01       	movw	r20, r12
     d42:	95 01       	movw	r18, r10
     d44:	0e 94 05 26 	call	0x4c0a	; 0x4c0a <__mulsi3>
     d48:	69 96       	adiw	r28, 0x19	; 25
     d4a:	6c af       	std	Y+60, r22	; 0x3c
     d4c:	7d af       	std	Y+61, r23	; 0x3d
     d4e:	8e af       	std	Y+62, r24	; 0x3e
     d50:	9f af       	std	Y+63, r25	; 0x3f
     d52:	69 97       	sbiw	r28, 0x19	; 25
     d54:	c8 01       	movw	r24, r16
     d56:	b7 01       	movw	r22, r14
     d58:	a2 01       	movw	r20, r4
     d5a:	91 01       	movw	r18, r2
     d5c:	0e 94 05 26 	call	0x4c0a	; 0x4c0a <__mulsi3>
     d60:	3b 01       	movw	r6, r22
     d62:	4c 01       	movw	r8, r24
     d64:	6d 96       	adiw	r28, 0x1d	; 29
     d66:	6c ad       	ldd	r22, Y+60	; 0x3c
     d68:	7d ad       	ldd	r23, Y+61	; 0x3d
     d6a:	8e ad       	ldd	r24, Y+62	; 0x3e
     d6c:	9f ad       	ldd	r25, Y+63	; 0x3f
     d6e:	6d 97       	sbiw	r28, 0x1d	; 29
     d70:	a6 01       	movw	r20, r12
     d72:	95 01       	movw	r18, r10
     d74:	0e 94 05 26 	call	0x4c0a	; 0x4c0a <__mulsi3>
     d78:	7b 01       	movw	r14, r22
     d7a:	8c 01       	movw	r16, r24
     d7c:	6d 96       	adiw	r28, 0x1d	; 29
     d7e:	6c ad       	ldd	r22, Y+60	; 0x3c
     d80:	7d ad       	ldd	r23, Y+61	; 0x3d
     d82:	8e ad       	ldd	r24, Y+62	; 0x3e
     d84:	9f ad       	ldd	r25, Y+63	; 0x3f
     d86:	6d 97       	sbiw	r28, 0x1d	; 29
     d88:	a2 01       	movw	r20, r4
     d8a:	91 01       	movw	r18, r2
     d8c:	0e 94 05 26 	call	0x4c0a	; 0x4c0a <__mulsi3>
     d90:	5b 01       	movw	r10, r22
     d92:	6c 01       	movw	r12, r24
     d94:	a8 01       	movw	r20, r16
     d96:	97 01       	movw	r18, r14
     d98:	26 0d       	add	r18, r6
     d9a:	37 1d       	adc	r19, r7
     d9c:	48 1d       	adc	r20, r8
     d9e:	59 1d       	adc	r21, r9
     da0:	69 96       	adiw	r28, 0x19	; 25
     da2:	6c ac       	ldd	r6, Y+60	; 0x3c
     da4:	7d ac       	ldd	r7, Y+61	; 0x3d
     da6:	8e ac       	ldd	r8, Y+62	; 0x3e
     da8:	9f ac       	ldd	r9, Y+63	; 0x3f
     daa:	69 97       	sbiw	r28, 0x19	; 25
     dac:	c4 01       	movw	r24, r8
     dae:	aa 27       	eor	r26, r26
     db0:	bb 27       	eor	r27, r27
     db2:	28 0f       	add	r18, r24
     db4:	39 1f       	adc	r19, r25
     db6:	4a 1f       	adc	r20, r26
     db8:	5b 1f       	adc	r21, r27
     dba:	2e 15       	cp	r18, r14
     dbc:	3f 05       	cpc	r19, r15
     dbe:	40 07       	cpc	r20, r16
     dc0:	51 07       	cpc	r21, r17
     dc2:	48 f4       	brcc	.+18     	; 0xdd6 <__stack+0x577>
     dc4:	e1 2c       	mov	r14, r1
     dc6:	f1 2c       	mov	r15, r1
     dc8:	61 e0       	ldi	r22, 0x01	; 1
     dca:	06 2f       	mov	r16, r22
     dcc:	11 2d       	mov	r17, r1
     dce:	ae 0c       	add	r10, r14
     dd0:	bf 1c       	adc	r11, r15
     dd2:	c0 1e       	adc	r12, r16
     dd4:	d1 1e       	adc	r13, r17
     dd6:	ca 01       	movw	r24, r20
     dd8:	aa 27       	eor	r26, r26
     dda:	bb 27       	eor	r27, r27
     ddc:	bc 01       	movw	r22, r24
     dde:	cd 01       	movw	r24, r26
     de0:	6a 0d       	add	r22, r10
     de2:	7b 1d       	adc	r23, r11
     de4:	8c 1d       	adc	r24, r12
     de6:	9d 1d       	adc	r25, r13
     de8:	69 8c       	ldd	r6, Y+25	; 0x19
     dea:	7a 8c       	ldd	r7, Y+26	; 0x1a
     dec:	8b 8c       	ldd	r8, Y+27	; 0x1b
     dee:	9c 8c       	ldd	r9, Y+28	; 0x1c
     df0:	66 16       	cp	r6, r22
     df2:	77 06       	cpc	r7, r23
     df4:	88 06       	cpc	r8, r24
     df6:	99 06       	cpc	r9, r25
     df8:	40 f1       	brcs	.+80     	; 0xe4a <__stack+0x5eb>
     dfa:	66 15       	cp	r22, r6
     dfc:	77 05       	cpc	r23, r7
     dfe:	88 05       	cpc	r24, r8
     e00:	99 05       	cpc	r25, r9
     e02:	09 f0       	breq	.+2      	; 0xe06 <__stack+0x5a7>
     e04:	43 c0       	rjmp	.+134    	; 0xe8c <__stack+0x62d>
     e06:	d9 01       	movw	r26, r18
     e08:	99 27       	eor	r25, r25
     e0a:	88 27       	eor	r24, r24
     e0c:	69 96       	adiw	r28, 0x19	; 25
     e0e:	2c ad       	ldd	r18, Y+60	; 0x3c
     e10:	3d ad       	ldd	r19, Y+61	; 0x3d
     e12:	4e ad       	ldd	r20, Y+62	; 0x3e
     e14:	5f ad       	ldd	r21, Y+63	; 0x3f
     e16:	69 97       	sbiw	r28, 0x19	; 25
     e18:	40 70       	andi	r20, 0x00	; 0
     e1a:	50 70       	andi	r21, 0x00	; 0
     e1c:	82 0f       	add	r24, r18
     e1e:	93 1f       	adc	r25, r19
     e20:	a4 1f       	adc	r26, r20
     e22:	b5 1f       	adc	r27, r21
     e24:	2d a5       	ldd	r18, Y+45	; 0x2d
     e26:	3e a5       	ldd	r19, Y+46	; 0x2e
     e28:	4f a5       	ldd	r20, Y+47	; 0x2f
     e2a:	58 a9       	ldd	r21, Y+48	; 0x30
     e2c:	6e 96       	adiw	r28, 0x1e	; 30
     e2e:	0f ac       	ldd	r0, Y+63	; 0x3f
     e30:	6e 97       	sbiw	r28, 0x1e	; 30
     e32:	04 c0       	rjmp	.+8      	; 0xe3c <__stack+0x5dd>
     e34:	22 0f       	add	r18, r18
     e36:	33 1f       	adc	r19, r19
     e38:	44 1f       	adc	r20, r20
     e3a:	55 1f       	adc	r21, r21
     e3c:	0a 94       	dec	r0
     e3e:	d2 f7       	brpl	.-12     	; 0xe34 <__stack+0x5d5>
     e40:	28 17       	cp	r18, r24
     e42:	39 07       	cpc	r19, r25
     e44:	4a 07       	cpc	r20, r26
     e46:	5b 07       	cpc	r21, r27
     e48:	08 f5       	brcc	.+66     	; 0xe8c <__stack+0x62d>
     e4a:	09 a9       	ldd	r16, Y+49	; 0x31
     e4c:	1a a9       	ldd	r17, Y+50	; 0x32
     e4e:	2b a9       	ldd	r18, Y+51	; 0x33
     e50:	3c a9       	ldd	r19, Y+52	; 0x34
     e52:	01 50       	subi	r16, 0x01	; 1
     e54:	10 40       	sbci	r17, 0x00	; 0
     e56:	20 40       	sbci	r18, 0x00	; 0
     e58:	30 40       	sbci	r19, 0x00	; 0
     e5a:	09 ab       	std	Y+49, r16	; 0x31
     e5c:	1a ab       	std	Y+50, r17	; 0x32
     e5e:	2b ab       	std	Y+51, r18	; 0x33
     e60:	3c ab       	std	Y+52, r19	; 0x34
     e62:	14 c0       	rjmp	.+40     	; 0xe8c <__stack+0x62d>
     e64:	66 24       	eor	r6, r6
     e66:	77 24       	eor	r7, r7
     e68:	43 01       	movw	r8, r6
     e6a:	21 e0       	ldi	r18, 0x01	; 1
     e6c:	30 e0       	ldi	r19, 0x00	; 0
     e6e:	40 e0       	ldi	r20, 0x00	; 0
     e70:	50 e0       	ldi	r21, 0x00	; 0
     e72:	29 ab       	std	Y+49, r18	; 0x31
     e74:	3a ab       	std	Y+50, r19	; 0x32
     e76:	4b ab       	std	Y+51, r20	; 0x33
     e78:	5c ab       	std	Y+52, r21	; 0x34
     e7a:	0b c0       	rjmp	.+22     	; 0xe92 <__stack+0x633>
     e7c:	66 24       	eor	r6, r6
     e7e:	77 24       	eor	r7, r7
     e80:	43 01       	movw	r8, r6
     e82:	19 aa       	std	Y+49, r1	; 0x31
     e84:	1a aa       	std	Y+50, r1	; 0x32
     e86:	1b aa       	std	Y+51, r1	; 0x33
     e88:	1c aa       	std	Y+52, r1	; 0x34
     e8a:	03 c0       	rjmp	.+6      	; 0xe92 <__stack+0x633>
     e8c:	66 24       	eor	r6, r6
     e8e:	77 24       	eor	r7, r7
     e90:	43 01       	movw	r8, r6
     e92:	fe 01       	movw	r30, r28
     e94:	71 96       	adiw	r30, 0x11	; 17
     e96:	88 e0       	ldi	r24, 0x08	; 8
     e98:	df 01       	movw	r26, r30
     e9a:	1d 92       	st	X+, r1
     e9c:	8a 95       	dec	r24
     e9e:	e9 f7       	brne	.-6      	; 0xe9a <__stack+0x63b>
     ea0:	a9 a8       	ldd	r10, Y+49	; 0x31
     ea2:	ba a8       	ldd	r11, Y+50	; 0x32
     ea4:	cb a8       	ldd	r12, Y+51	; 0x33
     ea6:	dc a8       	ldd	r13, Y+52	; 0x34
     ea8:	a9 8a       	std	Y+17, r10	; 0x11
     eaa:	ba 8a       	std	Y+18, r11	; 0x12
     eac:	cb 8a       	std	Y+19, r12	; 0x13
     eae:	dc 8a       	std	Y+20, r13	; 0x14
     eb0:	6d 8a       	std	Y+21, r6	; 0x15
     eb2:	7e 8a       	std	Y+22, r7	; 0x16
     eb4:	8f 8a       	std	Y+23, r8	; 0x17
     eb6:	98 8e       	std	Y+24, r9	; 0x18
     eb8:	29 a9       	ldd	r18, Y+49	; 0x31
     eba:	3a 89       	ldd	r19, Y+18	; 0x12
     ebc:	4b 89       	ldd	r20, Y+19	; 0x13
     ebe:	5c 89       	ldd	r21, Y+20	; 0x14
     ec0:	66 2d       	mov	r22, r6
     ec2:	7e 89       	ldd	r23, Y+22	; 0x16
     ec4:	8f 89       	ldd	r24, Y+23	; 0x17
     ec6:	98 8d       	ldd	r25, Y+24	; 0x18
     ec8:	c2 5a       	subi	r28, 0xA2	; 162
     eca:	df 4f       	sbci	r29, 0xFF	; 255
     ecc:	e2 e1       	ldi	r30, 0x12	; 18
     ece:	0c 94 62 26 	jmp	0x4cc4	; 0x4cc4 <__epilogue_restores__>

00000ed2 <__umoddi3>:
     ed2:	ab e5       	ldi	r26, 0x5B	; 91
     ed4:	b0 e0       	ldi	r27, 0x00	; 0
     ed6:	ef e6       	ldi	r30, 0x6F	; 111
     ed8:	f7 e0       	ldi	r31, 0x07	; 7
     eda:	0c 94 46 26 	jmp	0x4c8c	; 0x4c8c <__prologue_saves__>
     ede:	a8 e0       	ldi	r26, 0x08	; 8
     ee0:	4e 01       	movw	r8, r28
     ee2:	08 94       	sec
     ee4:	81 1c       	adc	r8, r1
     ee6:	91 1c       	adc	r9, r1
     ee8:	f4 01       	movw	r30, r8
     eea:	6a 2e       	mov	r6, r26
     eec:	11 92       	st	Z+, r1
     eee:	6a 94       	dec	r6
     ef0:	e9 f7       	brne	.-6      	; 0xeec <__umoddi3+0x1a>
     ef2:	29 83       	std	Y+1, r18	; 0x01
     ef4:	3a 83       	std	Y+2, r19	; 0x02
     ef6:	4b 83       	std	Y+3, r20	; 0x03
     ef8:	5c 83       	std	Y+4, r21	; 0x04
     efa:	6d 83       	std	Y+5, r22	; 0x05
     efc:	7e 83       	std	Y+6, r23	; 0x06
     efe:	8f 83       	std	Y+7, r24	; 0x07
     f00:	98 87       	std	Y+8, r25	; 0x08
     f02:	ce 01       	movw	r24, r28
     f04:	09 96       	adiw	r24, 0x09	; 9
     f06:	fc 01       	movw	r30, r24
     f08:	11 92       	st	Z+, r1
     f0a:	aa 95       	dec	r26
     f0c:	e9 f7       	brne	.-6      	; 0xf08 <__umoddi3+0x36>
     f0e:	a9 86       	std	Y+9, r10	; 0x09
     f10:	ba 86       	std	Y+10, r11	; 0x0a
     f12:	cb 86       	std	Y+11, r12	; 0x0b
     f14:	dc 86       	std	Y+12, r13	; 0x0c
     f16:	ed 86       	std	Y+13, r14	; 0x0d
     f18:	fe 86       	std	Y+14, r15	; 0x0e
     f1a:	0f 87       	std	Y+15, r16	; 0x0f
     f1c:	18 8b       	std	Y+16, r17	; 0x10
     f1e:	29 84       	ldd	r2, Y+9	; 0x09
     f20:	3a 84       	ldd	r3, Y+10	; 0x0a
     f22:	4b 84       	ldd	r4, Y+11	; 0x0b
     f24:	5c 84       	ldd	r5, Y+12	; 0x0c
     f26:	ad 84       	ldd	r10, Y+13	; 0x0d
     f28:	be 84       	ldd	r11, Y+14	; 0x0e
     f2a:	cf 84       	ldd	r12, Y+15	; 0x0f
     f2c:	d8 88       	ldd	r13, Y+16	; 0x10
     f2e:	29 81       	ldd	r18, Y+1	; 0x01
     f30:	3a 81       	ldd	r19, Y+2	; 0x02
     f32:	4b 81       	ldd	r20, Y+3	; 0x03
     f34:	5c 81       	ldd	r21, Y+4	; 0x04
     f36:	69 96       	adiw	r28, 0x19	; 25
     f38:	2f af       	std	Y+63, r18	; 0x3f
     f3a:	69 97       	sbiw	r28, 0x19	; 25
     f3c:	6a 96       	adiw	r28, 0x1a	; 26
     f3e:	3f af       	std	Y+63, r19	; 0x3f
     f40:	6a 97       	sbiw	r28, 0x1a	; 26
     f42:	6b 96       	adiw	r28, 0x1b	; 27
     f44:	4f af       	std	Y+63, r20	; 0x3f
     f46:	6b 97       	sbiw	r28, 0x1b	; 27
     f48:	6c 96       	adiw	r28, 0x1c	; 28
     f4a:	5f af       	std	Y+63, r21	; 0x3f
     f4c:	6c 97       	sbiw	r28, 0x1c	; 28
     f4e:	6c 96       	adiw	r28, 0x1c	; 28
     f50:	6c ac       	ldd	r6, Y+60	; 0x3c
     f52:	7d ac       	ldd	r7, Y+61	; 0x3d
     f54:	8e ac       	ldd	r8, Y+62	; 0x3e
     f56:	9f ac       	ldd	r9, Y+63	; 0x3f
     f58:	6c 97       	sbiw	r28, 0x1c	; 28
     f5a:	69 aa       	std	Y+49, r6	; 0x31
     f5c:	7a aa       	std	Y+50, r7	; 0x32
     f5e:	8b aa       	std	Y+51, r8	; 0x33
     f60:	9c aa       	std	Y+52, r9	; 0x34
     f62:	6d 81       	ldd	r22, Y+5	; 0x05
     f64:	7e 81       	ldd	r23, Y+6	; 0x06
     f66:	8f 81       	ldd	r24, Y+7	; 0x07
     f68:	98 85       	ldd	r25, Y+8	; 0x08
     f6a:	3b 01       	movw	r6, r22
     f6c:	4c 01       	movw	r8, r24
     f6e:	6d aa       	std	Y+53, r6	; 0x35
     f70:	7e aa       	std	Y+54, r7	; 0x36
     f72:	8f aa       	std	Y+55, r8	; 0x37
     f74:	98 ae       	std	Y+56, r9	; 0x38
     f76:	a1 14       	cp	r10, r1
     f78:	b1 04       	cpc	r11, r1
     f7a:	c1 04       	cpc	r12, r1
     f7c:	d1 04       	cpc	r13, r1
     f7e:	09 f0       	breq	.+2      	; 0xf82 <__umoddi3+0xb0>
     f80:	04 c3       	rjmp	.+1544   	; 0x158a <__umoddi3+0x6b8>
     f82:	62 14       	cp	r6, r2
     f84:	73 04       	cpc	r7, r3
     f86:	84 04       	cpc	r8, r4
     f88:	95 04       	cpc	r9, r5
     f8a:	08 f0       	brcs	.+2      	; 0xf8e <__umoddi3+0xbc>
     f8c:	00 c1       	rjmp	.+512    	; 0x118e <__umoddi3+0x2bc>
     f8e:	00 e0       	ldi	r16, 0x00	; 0
     f90:	20 16       	cp	r2, r16
     f92:	00 e0       	ldi	r16, 0x00	; 0
     f94:	30 06       	cpc	r3, r16
     f96:	01 e0       	ldi	r16, 0x01	; 1
     f98:	40 06       	cpc	r4, r16
     f9a:	00 e0       	ldi	r16, 0x00	; 0
     f9c:	50 06       	cpc	r5, r16
     f9e:	88 f4       	brcc	.+34     	; 0xfc2 <__umoddi3+0xf0>
     fa0:	1f ef       	ldi	r17, 0xFF	; 255
     fa2:	21 16       	cp	r2, r17
     fa4:	31 04       	cpc	r3, r1
     fa6:	41 04       	cpc	r4, r1
     fa8:	51 04       	cpc	r5, r1
     faa:	39 f0       	breq	.+14     	; 0xfba <__umoddi3+0xe8>
     fac:	30 f0       	brcs	.+12     	; 0xfba <__umoddi3+0xe8>
     fae:	88 e0       	ldi	r24, 0x08	; 8
     fb0:	e8 2e       	mov	r14, r24
     fb2:	f1 2c       	mov	r15, r1
     fb4:	01 2d       	mov	r16, r1
     fb6:	11 2d       	mov	r17, r1
     fb8:	18 c0       	rjmp	.+48     	; 0xfea <__umoddi3+0x118>
     fba:	ee 24       	eor	r14, r14
     fbc:	ff 24       	eor	r15, r15
     fbe:	87 01       	movw	r16, r14
     fc0:	14 c0       	rjmp	.+40     	; 0xfea <__umoddi3+0x118>
     fc2:	40 e0       	ldi	r20, 0x00	; 0
     fc4:	24 16       	cp	r2, r20
     fc6:	40 e0       	ldi	r20, 0x00	; 0
     fc8:	34 06       	cpc	r3, r20
     fca:	40 e0       	ldi	r20, 0x00	; 0
     fcc:	44 06       	cpc	r4, r20
     fce:	41 e0       	ldi	r20, 0x01	; 1
     fd0:	54 06       	cpc	r5, r20
     fd2:	30 f0       	brcs	.+12     	; 0xfe0 <__umoddi3+0x10e>
     fd4:	b8 e1       	ldi	r27, 0x18	; 24
     fd6:	eb 2e       	mov	r14, r27
     fd8:	f1 2c       	mov	r15, r1
     fda:	01 2d       	mov	r16, r1
     fdc:	11 2d       	mov	r17, r1
     fde:	05 c0       	rjmp	.+10     	; 0xfea <__umoddi3+0x118>
     fe0:	a0 e1       	ldi	r26, 0x10	; 16
     fe2:	ea 2e       	mov	r14, r26
     fe4:	f1 2c       	mov	r15, r1
     fe6:	01 2d       	mov	r16, r1
     fe8:	11 2d       	mov	r17, r1
     fea:	d2 01       	movw	r26, r4
     fec:	c1 01       	movw	r24, r2
     fee:	0e 2c       	mov	r0, r14
     ff0:	04 c0       	rjmp	.+8      	; 0xffa <__umoddi3+0x128>
     ff2:	b6 95       	lsr	r27
     ff4:	a7 95       	ror	r26
     ff6:	97 95       	ror	r25
     ff8:	87 95       	ror	r24
     ffa:	0a 94       	dec	r0
     ffc:	d2 f7       	brpl	.-12     	; 0xff2 <__umoddi3+0x120>
     ffe:	82 57       	subi	r24, 0x72	; 114
    1000:	9e 4f       	sbci	r25, 0xFE	; 254
    1002:	dc 01       	movw	r26, r24
    1004:	2c 91       	ld	r18, X
    1006:	80 e2       	ldi	r24, 0x20	; 32
    1008:	90 e0       	ldi	r25, 0x00	; 0
    100a:	a0 e0       	ldi	r26, 0x00	; 0
    100c:	b0 e0       	ldi	r27, 0x00	; 0
    100e:	8e 19       	sub	r24, r14
    1010:	9f 09       	sbc	r25, r15
    1012:	a0 0b       	sbc	r26, r16
    1014:	b1 0b       	sbc	r27, r17
    1016:	5c 01       	movw	r10, r24
    1018:	6d 01       	movw	r12, r26
    101a:	a2 1a       	sub	r10, r18
    101c:	b1 08       	sbc	r11, r1
    101e:	c1 08       	sbc	r12, r1
    1020:	d1 08       	sbc	r13, r1
    1022:	a9 ae       	std	Y+57, r10	; 0x39
    1024:	ba ae       	std	Y+58, r11	; 0x3a
    1026:	cb ae       	std	Y+59, r12	; 0x3b
    1028:	dc ae       	std	Y+60, r13	; 0x3c
    102a:	a1 14       	cp	r10, r1
    102c:	b1 04       	cpc	r11, r1
    102e:	c1 04       	cpc	r12, r1
    1030:	d1 04       	cpc	r13, r1
    1032:	09 f4       	brne	.+2      	; 0x1036 <__umoddi3+0x164>
    1034:	3f c0       	rjmp	.+126    	; 0x10b4 <__umoddi3+0x1e2>
    1036:	69 ad       	ldd	r22, Y+57	; 0x39
    1038:	06 2e       	mov	r0, r22
    103a:	04 c0       	rjmp	.+8      	; 0x1044 <__umoddi3+0x172>
    103c:	22 0c       	add	r2, r2
    103e:	33 1c       	adc	r3, r3
    1040:	44 1c       	adc	r4, r4
    1042:	55 1c       	adc	r5, r5
    1044:	0a 94       	dec	r0
    1046:	d2 f7       	brpl	.-12     	; 0x103c <__umoddi3+0x16a>
    1048:	a4 01       	movw	r20, r8
    104a:	93 01       	movw	r18, r6
    104c:	06 2e       	mov	r0, r22
    104e:	04 c0       	rjmp	.+8      	; 0x1058 <__umoddi3+0x186>
    1050:	22 0f       	add	r18, r18
    1052:	33 1f       	adc	r19, r19
    1054:	44 1f       	adc	r20, r20
    1056:	55 1f       	adc	r21, r21
    1058:	0a 94       	dec	r0
    105a:	d2 f7       	brpl	.-12     	; 0x1050 <__umoddi3+0x17e>
    105c:	80 e2       	ldi	r24, 0x20	; 32
    105e:	90 e0       	ldi	r25, 0x00	; 0
    1060:	8a 19       	sub	r24, r10
    1062:	9b 09       	sbc	r25, r11
    1064:	6c 96       	adiw	r28, 0x1c	; 28
    1066:	cc ac       	ldd	r12, Y+60	; 0x3c
    1068:	dd ac       	ldd	r13, Y+61	; 0x3d
    106a:	ee ac       	ldd	r14, Y+62	; 0x3e
    106c:	ff ac       	ldd	r15, Y+63	; 0x3f
    106e:	6c 97       	sbiw	r28, 0x1c	; 28
    1070:	04 c0       	rjmp	.+8      	; 0x107a <__umoddi3+0x1a8>
    1072:	f6 94       	lsr	r15
    1074:	e7 94       	ror	r14
    1076:	d7 94       	ror	r13
    1078:	c7 94       	ror	r12
    107a:	8a 95       	dec	r24
    107c:	d2 f7       	brpl	.-12     	; 0x1072 <__umoddi3+0x1a0>
    107e:	87 01       	movw	r16, r14
    1080:	76 01       	movw	r14, r12
    1082:	e2 2a       	or	r14, r18
    1084:	f3 2a       	or	r15, r19
    1086:	04 2b       	or	r16, r20
    1088:	15 2b       	or	r17, r21
    108a:	ed aa       	std	Y+53, r14	; 0x35
    108c:	fe aa       	std	Y+54, r15	; 0x36
    108e:	0f ab       	std	Y+55, r16	; 0x37
    1090:	18 af       	std	Y+56, r17	; 0x38
    1092:	6c 96       	adiw	r28, 0x1c	; 28
    1094:	8c ad       	ldd	r24, Y+60	; 0x3c
    1096:	9d ad       	ldd	r25, Y+61	; 0x3d
    1098:	ae ad       	ldd	r26, Y+62	; 0x3e
    109a:	bf ad       	ldd	r27, Y+63	; 0x3f
    109c:	6c 97       	sbiw	r28, 0x1c	; 28
    109e:	04 c0       	rjmp	.+8      	; 0x10a8 <__umoddi3+0x1d6>
    10a0:	88 0f       	add	r24, r24
    10a2:	99 1f       	adc	r25, r25
    10a4:	aa 1f       	adc	r26, r26
    10a6:	bb 1f       	adc	r27, r27
    10a8:	6a 95       	dec	r22
    10aa:	d2 f7       	brpl	.-12     	; 0x10a0 <__umoddi3+0x1ce>
    10ac:	89 ab       	std	Y+49, r24	; 0x31
    10ae:	9a ab       	std	Y+50, r25	; 0x32
    10b0:	ab ab       	std	Y+51, r26	; 0x33
    10b2:	bc ab       	std	Y+52, r27	; 0x34
    10b4:	32 01       	movw	r6, r4
    10b6:	88 24       	eor	r8, r8
    10b8:	99 24       	eor	r9, r9
    10ba:	b2 01       	movw	r22, r4
    10bc:	a1 01       	movw	r20, r2
    10be:	60 70       	andi	r22, 0x00	; 0
    10c0:	70 70       	andi	r23, 0x00	; 0
    10c2:	21 96       	adiw	r28, 0x01	; 1
    10c4:	4c af       	std	Y+60, r20	; 0x3c
    10c6:	5d af       	std	Y+61, r21	; 0x3d
    10c8:	6e af       	std	Y+62, r22	; 0x3e
    10ca:	7f af       	std	Y+63, r23	; 0x3f
    10cc:	21 97       	sbiw	r28, 0x01	; 1
    10ce:	6d a9       	ldd	r22, Y+53	; 0x35
    10d0:	7e a9       	ldd	r23, Y+54	; 0x36
    10d2:	8f a9       	ldd	r24, Y+55	; 0x37
    10d4:	98 ad       	ldd	r25, Y+56	; 0x38
    10d6:	a4 01       	movw	r20, r8
    10d8:	93 01       	movw	r18, r6
    10da:	0e 94 24 26 	call	0x4c48	; 0x4c48 <__udivmodsi4>
    10de:	7b 01       	movw	r14, r22
    10e0:	8c 01       	movw	r16, r24
    10e2:	6d a9       	ldd	r22, Y+53	; 0x35
    10e4:	7e a9       	ldd	r23, Y+54	; 0x36
    10e6:	8f a9       	ldd	r24, Y+55	; 0x37
    10e8:	98 ad       	ldd	r25, Y+56	; 0x38
    10ea:	a4 01       	movw	r20, r8
    10ec:	93 01       	movw	r18, r6
    10ee:	0e 94 24 26 	call	0x4c48	; 0x4c48 <__udivmodsi4>
    10f2:	ca 01       	movw	r24, r20
    10f4:	b9 01       	movw	r22, r18
    10f6:	21 96       	adiw	r28, 0x01	; 1
    10f8:	2c ad       	ldd	r18, Y+60	; 0x3c
    10fa:	3d ad       	ldd	r19, Y+61	; 0x3d
    10fc:	4e ad       	ldd	r20, Y+62	; 0x3e
    10fe:	5f ad       	ldd	r21, Y+63	; 0x3f
    1100:	21 97       	sbiw	r28, 0x01	; 1
    1102:	0e 94 05 26 	call	0x4c0a	; 0x4c0a <__mulsi3>
    1106:	9b 01       	movw	r18, r22
    1108:	ac 01       	movw	r20, r24
    110a:	87 01       	movw	r16, r14
    110c:	ff 24       	eor	r15, r15
    110e:	ee 24       	eor	r14, r14
    1110:	a9 a8       	ldd	r10, Y+49	; 0x31
    1112:	ba a8       	ldd	r11, Y+50	; 0x32
    1114:	cb a8       	ldd	r12, Y+51	; 0x33
    1116:	dc a8       	ldd	r13, Y+52	; 0x34
    1118:	c6 01       	movw	r24, r12
    111a:	aa 27       	eor	r26, r26
    111c:	bb 27       	eor	r27, r27
    111e:	57 01       	movw	r10, r14
    1120:	68 01       	movw	r12, r16
    1122:	a8 2a       	or	r10, r24
    1124:	b9 2a       	or	r11, r25
    1126:	ca 2a       	or	r12, r26
    1128:	db 2a       	or	r13, r27
    112a:	a2 16       	cp	r10, r18
    112c:	b3 06       	cpc	r11, r19
    112e:	c4 06       	cpc	r12, r20
    1130:	d5 06       	cpc	r13, r21
    1132:	90 f4       	brcc	.+36     	; 0x1158 <__umoddi3+0x286>
    1134:	a2 0c       	add	r10, r2
    1136:	b3 1c       	adc	r11, r3
    1138:	c4 1c       	adc	r12, r4
    113a:	d5 1c       	adc	r13, r5
    113c:	a2 14       	cp	r10, r2
    113e:	b3 04       	cpc	r11, r3
    1140:	c4 04       	cpc	r12, r4
    1142:	d5 04       	cpc	r13, r5
    1144:	48 f0       	brcs	.+18     	; 0x1158 <__umoddi3+0x286>
    1146:	a2 16       	cp	r10, r18
    1148:	b3 06       	cpc	r11, r19
    114a:	c4 06       	cpc	r12, r20
    114c:	d5 06       	cpc	r13, r21
    114e:	20 f4       	brcc	.+8      	; 0x1158 <__umoddi3+0x286>
    1150:	a2 0c       	add	r10, r2
    1152:	b3 1c       	adc	r11, r3
    1154:	c4 1c       	adc	r12, r4
    1156:	d5 1c       	adc	r13, r5
    1158:	a2 1a       	sub	r10, r18
    115a:	b3 0a       	sbc	r11, r19
    115c:	c4 0a       	sbc	r12, r20
    115e:	d5 0a       	sbc	r13, r21
    1160:	c6 01       	movw	r24, r12
    1162:	b5 01       	movw	r22, r10
    1164:	a4 01       	movw	r20, r8
    1166:	93 01       	movw	r18, r6
    1168:	0e 94 24 26 	call	0x4c48	; 0x4c48 <__udivmodsi4>
    116c:	7b 01       	movw	r14, r22
    116e:	8c 01       	movw	r16, r24
    1170:	c6 01       	movw	r24, r12
    1172:	b5 01       	movw	r22, r10
    1174:	a4 01       	movw	r20, r8
    1176:	93 01       	movw	r18, r6
    1178:	0e 94 24 26 	call	0x4c48	; 0x4c48 <__udivmodsi4>
    117c:	ca 01       	movw	r24, r20
    117e:	b9 01       	movw	r22, r18
    1180:	21 96       	adiw	r28, 0x01	; 1
    1182:	2c ad       	ldd	r18, Y+60	; 0x3c
    1184:	3d ad       	ldd	r19, Y+61	; 0x3d
    1186:	4e ad       	ldd	r20, Y+62	; 0x3e
    1188:	5f ad       	ldd	r21, Y+63	; 0x3f
    118a:	21 97       	sbiw	r28, 0x01	; 1
    118c:	ba c1       	rjmp	.+884    	; 0x1502 <__umoddi3+0x630>
    118e:	21 14       	cp	r2, r1
    1190:	31 04       	cpc	r3, r1
    1192:	41 04       	cpc	r4, r1
    1194:	51 04       	cpc	r5, r1
    1196:	71 f4       	brne	.+28     	; 0x11b4 <__umoddi3+0x2e2>
    1198:	61 e0       	ldi	r22, 0x01	; 1
    119a:	70 e0       	ldi	r23, 0x00	; 0
    119c:	80 e0       	ldi	r24, 0x00	; 0
    119e:	90 e0       	ldi	r25, 0x00	; 0
    11a0:	20 e0       	ldi	r18, 0x00	; 0
    11a2:	30 e0       	ldi	r19, 0x00	; 0
    11a4:	40 e0       	ldi	r20, 0x00	; 0
    11a6:	50 e0       	ldi	r21, 0x00	; 0
    11a8:	0e 94 24 26 	call	0x4c48	; 0x4c48 <__udivmodsi4>
    11ac:	c9 01       	movw	r24, r18
    11ae:	da 01       	movw	r26, r20
    11b0:	1c 01       	movw	r2, r24
    11b2:	2d 01       	movw	r4, r26
    11b4:	00 e0       	ldi	r16, 0x00	; 0
    11b6:	20 16       	cp	r2, r16
    11b8:	00 e0       	ldi	r16, 0x00	; 0
    11ba:	30 06       	cpc	r3, r16
    11bc:	01 e0       	ldi	r16, 0x01	; 1
    11be:	40 06       	cpc	r4, r16
    11c0:	00 e0       	ldi	r16, 0x00	; 0
    11c2:	50 06       	cpc	r5, r16
    11c4:	88 f4       	brcc	.+34     	; 0x11e8 <__umoddi3+0x316>
    11c6:	1f ef       	ldi	r17, 0xFF	; 255
    11c8:	21 16       	cp	r2, r17
    11ca:	31 04       	cpc	r3, r1
    11cc:	41 04       	cpc	r4, r1
    11ce:	51 04       	cpc	r5, r1
    11d0:	39 f0       	breq	.+14     	; 0x11e0 <__umoddi3+0x30e>
    11d2:	30 f0       	brcs	.+12     	; 0x11e0 <__umoddi3+0x30e>
    11d4:	68 e0       	ldi	r22, 0x08	; 8
    11d6:	e6 2e       	mov	r14, r22
    11d8:	f1 2c       	mov	r15, r1
    11da:	01 2d       	mov	r16, r1
    11dc:	11 2d       	mov	r17, r1
    11de:	18 c0       	rjmp	.+48     	; 0x1210 <__umoddi3+0x33e>
    11e0:	ee 24       	eor	r14, r14
    11e2:	ff 24       	eor	r15, r15
    11e4:	87 01       	movw	r16, r14
    11e6:	14 c0       	rjmp	.+40     	; 0x1210 <__umoddi3+0x33e>
    11e8:	40 e0       	ldi	r20, 0x00	; 0
    11ea:	24 16       	cp	r2, r20
    11ec:	40 e0       	ldi	r20, 0x00	; 0
    11ee:	34 06       	cpc	r3, r20
    11f0:	40 e0       	ldi	r20, 0x00	; 0
    11f2:	44 06       	cpc	r4, r20
    11f4:	41 e0       	ldi	r20, 0x01	; 1
    11f6:	54 06       	cpc	r5, r20
    11f8:	30 f0       	brcs	.+12     	; 0x1206 <__umoddi3+0x334>
    11fa:	58 e1       	ldi	r21, 0x18	; 24
    11fc:	e5 2e       	mov	r14, r21
    11fe:	f1 2c       	mov	r15, r1
    1200:	01 2d       	mov	r16, r1
    1202:	11 2d       	mov	r17, r1
    1204:	05 c0       	rjmp	.+10     	; 0x1210 <__umoddi3+0x33e>
    1206:	40 e1       	ldi	r20, 0x10	; 16
    1208:	e4 2e       	mov	r14, r20
    120a:	f1 2c       	mov	r15, r1
    120c:	01 2d       	mov	r16, r1
    120e:	11 2d       	mov	r17, r1
    1210:	d2 01       	movw	r26, r4
    1212:	c1 01       	movw	r24, r2
    1214:	0e 2c       	mov	r0, r14
    1216:	04 c0       	rjmp	.+8      	; 0x1220 <__umoddi3+0x34e>
    1218:	b6 95       	lsr	r27
    121a:	a7 95       	ror	r26
    121c:	97 95       	ror	r25
    121e:	87 95       	ror	r24
    1220:	0a 94       	dec	r0
    1222:	d2 f7       	brpl	.-12     	; 0x1218 <__umoddi3+0x346>
    1224:	82 57       	subi	r24, 0x72	; 114
    1226:	9e 4f       	sbci	r25, 0xFE	; 254
    1228:	dc 01       	movw	r26, r24
    122a:	2c 91       	ld	r18, X
    122c:	30 e2       	ldi	r19, 0x20	; 32
    122e:	a3 2e       	mov	r10, r19
    1230:	b1 2c       	mov	r11, r1
    1232:	c1 2c       	mov	r12, r1
    1234:	d1 2c       	mov	r13, r1
    1236:	d6 01       	movw	r26, r12
    1238:	c5 01       	movw	r24, r10
    123a:	8e 19       	sub	r24, r14
    123c:	9f 09       	sbc	r25, r15
    123e:	a0 0b       	sbc	r26, r16
    1240:	b1 0b       	sbc	r27, r17
    1242:	7c 01       	movw	r14, r24
    1244:	8d 01       	movw	r16, r26
    1246:	e2 1a       	sub	r14, r18
    1248:	f1 08       	sbc	r15, r1
    124a:	01 09       	sbc	r16, r1
    124c:	11 09       	sbc	r17, r1
    124e:	e9 ae       	std	Y+57, r14	; 0x39
    1250:	fa ae       	std	Y+58, r15	; 0x3a
    1252:	0b af       	std	Y+59, r16	; 0x3b
    1254:	1c af       	std	Y+60, r17	; 0x3c
    1256:	e1 14       	cp	r14, r1
    1258:	f1 04       	cpc	r15, r1
    125a:	01 05       	cpc	r16, r1
    125c:	11 05       	cpc	r17, r1
    125e:	39 f4       	brne	.+14     	; 0x126e <__umoddi3+0x39c>
    1260:	64 01       	movw	r12, r8
    1262:	53 01       	movw	r10, r6
    1264:	a2 18       	sub	r10, r2
    1266:	b3 08       	sbc	r11, r3
    1268:	c4 08       	sbc	r12, r4
    126a:	d5 08       	sbc	r13, r5
    126c:	e2 c0       	rjmp	.+452    	; 0x1432 <__umoddi3+0x560>
    126e:	f9 ac       	ldd	r15, Y+57	; 0x39
    1270:	68 96       	adiw	r28, 0x18	; 24
    1272:	ff ae       	std	Y+63, r15	; 0x3f
    1274:	68 97       	sbiw	r28, 0x18	; 24
    1276:	0f 2c       	mov	r0, r15
    1278:	04 c0       	rjmp	.+8      	; 0x1282 <__umoddi3+0x3b0>
    127a:	22 0c       	add	r2, r2
    127c:	33 1c       	adc	r3, r3
    127e:	44 1c       	adc	r4, r4
    1280:	55 1c       	adc	r5, r5
    1282:	0a 94       	dec	r0
    1284:	d2 f7       	brpl	.-12     	; 0x127a <__umoddi3+0x3a8>
    1286:	8a 2d       	mov	r24, r10
    1288:	8f 19       	sub	r24, r15
    128a:	64 01       	movw	r12, r8
    128c:	53 01       	movw	r10, r6
    128e:	08 2e       	mov	r0, r24
    1290:	04 c0       	rjmp	.+8      	; 0x129a <__umoddi3+0x3c8>
    1292:	d6 94       	lsr	r13
    1294:	c7 94       	ror	r12
    1296:	b7 94       	ror	r11
    1298:	a7 94       	ror	r10
    129a:	0a 94       	dec	r0
    129c:	d2 f7       	brpl	.-12     	; 0x1292 <__umoddi3+0x3c0>
    129e:	a4 01       	movw	r20, r8
    12a0:	93 01       	movw	r18, r6
    12a2:	04 c0       	rjmp	.+8      	; 0x12ac <__umoddi3+0x3da>
    12a4:	22 0f       	add	r18, r18
    12a6:	33 1f       	adc	r19, r19
    12a8:	44 1f       	adc	r20, r20
    12aa:	55 1f       	adc	r21, r21
    12ac:	fa 94       	dec	r15
    12ae:	d2 f7       	brpl	.-12     	; 0x12a4 <__umoddi3+0x3d2>
    12b0:	6c 96       	adiw	r28, 0x1c	; 28
    12b2:	6c ac       	ldd	r6, Y+60	; 0x3c
    12b4:	7d ac       	ldd	r7, Y+61	; 0x3d
    12b6:	8e ac       	ldd	r8, Y+62	; 0x3e
    12b8:	9f ac       	ldd	r9, Y+63	; 0x3f
    12ba:	6c 97       	sbiw	r28, 0x1c	; 28
    12bc:	04 c0       	rjmp	.+8      	; 0x12c6 <__umoddi3+0x3f4>
    12be:	96 94       	lsr	r9
    12c0:	87 94       	ror	r8
    12c2:	77 94       	ror	r7
    12c4:	67 94       	ror	r6
    12c6:	8a 95       	dec	r24
    12c8:	d2 f7       	brpl	.-12     	; 0x12be <__umoddi3+0x3ec>
    12ca:	84 01       	movw	r16, r8
    12cc:	73 01       	movw	r14, r6
    12ce:	e2 2a       	or	r14, r18
    12d0:	f3 2a       	or	r15, r19
    12d2:	04 2b       	or	r16, r20
    12d4:	15 2b       	or	r17, r21
    12d6:	ed a6       	std	Y+45, r14	; 0x2d
    12d8:	fe a6       	std	Y+46, r15	; 0x2e
    12da:	0f a7       	std	Y+47, r16	; 0x2f
    12dc:	18 ab       	std	Y+48, r17	; 0x30
    12de:	32 01       	movw	r6, r4
    12e0:	88 24       	eor	r8, r8
    12e2:	99 24       	eor	r9, r9
    12e4:	b2 01       	movw	r22, r4
    12e6:	a1 01       	movw	r20, r2
    12e8:	60 70       	andi	r22, 0x00	; 0
    12ea:	70 70       	andi	r23, 0x00	; 0
    12ec:	25 96       	adiw	r28, 0x05	; 5
    12ee:	4c af       	std	Y+60, r20	; 0x3c
    12f0:	5d af       	std	Y+61, r21	; 0x3d
    12f2:	6e af       	std	Y+62, r22	; 0x3e
    12f4:	7f af       	std	Y+63, r23	; 0x3f
    12f6:	25 97       	sbiw	r28, 0x05	; 5
    12f8:	c6 01       	movw	r24, r12
    12fa:	b5 01       	movw	r22, r10
    12fc:	a4 01       	movw	r20, r8
    12fe:	93 01       	movw	r18, r6
    1300:	0e 94 24 26 	call	0x4c48	; 0x4c48 <__udivmodsi4>
    1304:	7b 01       	movw	r14, r22
    1306:	8c 01       	movw	r16, r24
    1308:	c6 01       	movw	r24, r12
    130a:	b5 01       	movw	r22, r10
    130c:	a4 01       	movw	r20, r8
    130e:	93 01       	movw	r18, r6
    1310:	0e 94 24 26 	call	0x4c48	; 0x4c48 <__udivmodsi4>
    1314:	ca 01       	movw	r24, r20
    1316:	b9 01       	movw	r22, r18
    1318:	25 96       	adiw	r28, 0x05	; 5
    131a:	2c ad       	ldd	r18, Y+60	; 0x3c
    131c:	3d ad       	ldd	r19, Y+61	; 0x3d
    131e:	4e ad       	ldd	r20, Y+62	; 0x3e
    1320:	5f ad       	ldd	r21, Y+63	; 0x3f
    1322:	25 97       	sbiw	r28, 0x05	; 5
    1324:	0e 94 05 26 	call	0x4c0a	; 0x4c0a <__mulsi3>
    1328:	9b 01       	movw	r18, r22
    132a:	ac 01       	movw	r20, r24
    132c:	87 01       	movw	r16, r14
    132e:	ff 24       	eor	r15, r15
    1330:	ee 24       	eor	r14, r14
    1332:	ad a4       	ldd	r10, Y+45	; 0x2d
    1334:	be a4       	ldd	r11, Y+46	; 0x2e
    1336:	cf a4       	ldd	r12, Y+47	; 0x2f
    1338:	d8 a8       	ldd	r13, Y+48	; 0x30
    133a:	c6 01       	movw	r24, r12
    133c:	aa 27       	eor	r26, r26
    133e:	bb 27       	eor	r27, r27
    1340:	5c 01       	movw	r10, r24
    1342:	6d 01       	movw	r12, r26
    1344:	ae 28       	or	r10, r14
    1346:	bf 28       	or	r11, r15
    1348:	c0 2a       	or	r12, r16
    134a:	d1 2a       	or	r13, r17
    134c:	a2 16       	cp	r10, r18
    134e:	b3 06       	cpc	r11, r19
    1350:	c4 06       	cpc	r12, r20
    1352:	d5 06       	cpc	r13, r21
    1354:	90 f4       	brcc	.+36     	; 0x137a <__umoddi3+0x4a8>
    1356:	a2 0c       	add	r10, r2
    1358:	b3 1c       	adc	r11, r3
    135a:	c4 1c       	adc	r12, r4
    135c:	d5 1c       	adc	r13, r5
    135e:	a2 14       	cp	r10, r2
    1360:	b3 04       	cpc	r11, r3
    1362:	c4 04       	cpc	r12, r4
    1364:	d5 04       	cpc	r13, r5
    1366:	48 f0       	brcs	.+18     	; 0x137a <__umoddi3+0x4a8>
    1368:	a2 16       	cp	r10, r18
    136a:	b3 06       	cpc	r11, r19
    136c:	c4 06       	cpc	r12, r20
    136e:	d5 06       	cpc	r13, r21
    1370:	20 f4       	brcc	.+8      	; 0x137a <__umoddi3+0x4a8>
    1372:	a2 0c       	add	r10, r2
    1374:	b3 1c       	adc	r11, r3
    1376:	c4 1c       	adc	r12, r4
    1378:	d5 1c       	adc	r13, r5
    137a:	a2 1a       	sub	r10, r18
    137c:	b3 0a       	sbc	r11, r19
    137e:	c4 0a       	sbc	r12, r20
    1380:	d5 0a       	sbc	r13, r21
    1382:	c6 01       	movw	r24, r12
    1384:	b5 01       	movw	r22, r10
    1386:	a4 01       	movw	r20, r8
    1388:	93 01       	movw	r18, r6
    138a:	0e 94 24 26 	call	0x4c48	; 0x4c48 <__udivmodsi4>
    138e:	7b 01       	movw	r14, r22
    1390:	8c 01       	movw	r16, r24
    1392:	c6 01       	movw	r24, r12
    1394:	b5 01       	movw	r22, r10
    1396:	a4 01       	movw	r20, r8
    1398:	93 01       	movw	r18, r6
    139a:	0e 94 24 26 	call	0x4c48	; 0x4c48 <__udivmodsi4>
    139e:	ca 01       	movw	r24, r20
    13a0:	b9 01       	movw	r22, r18
    13a2:	25 96       	adiw	r28, 0x05	; 5
    13a4:	2c ad       	ldd	r18, Y+60	; 0x3c
    13a6:	3d ad       	ldd	r19, Y+61	; 0x3d
    13a8:	4e ad       	ldd	r20, Y+62	; 0x3e
    13aa:	5f ad       	ldd	r21, Y+63	; 0x3f
    13ac:	25 97       	sbiw	r28, 0x05	; 5
    13ae:	0e 94 05 26 	call	0x4c0a	; 0x4c0a <__mulsi3>
    13b2:	9b 01       	movw	r18, r22
    13b4:	ac 01       	movw	r20, r24
    13b6:	87 01       	movw	r16, r14
    13b8:	ff 24       	eor	r15, r15
    13ba:	ee 24       	eor	r14, r14
    13bc:	8d a5       	ldd	r24, Y+45	; 0x2d
    13be:	9e a5       	ldd	r25, Y+46	; 0x2e
    13c0:	af a5       	ldd	r26, Y+47	; 0x2f
    13c2:	b8 a9       	ldd	r27, Y+48	; 0x30
    13c4:	a0 70       	andi	r26, 0x00	; 0
    13c6:	b0 70       	andi	r27, 0x00	; 0
    13c8:	57 01       	movw	r10, r14
    13ca:	68 01       	movw	r12, r16
    13cc:	a8 2a       	or	r10, r24
    13ce:	b9 2a       	or	r11, r25
    13d0:	ca 2a       	or	r12, r26
    13d2:	db 2a       	or	r13, r27
    13d4:	a2 16       	cp	r10, r18
    13d6:	b3 06       	cpc	r11, r19
    13d8:	c4 06       	cpc	r12, r20
    13da:	d5 06       	cpc	r13, r21
    13dc:	90 f4       	brcc	.+36     	; 0x1402 <__umoddi3+0x530>
    13de:	a2 0c       	add	r10, r2
    13e0:	b3 1c       	adc	r11, r3
    13e2:	c4 1c       	adc	r12, r4
    13e4:	d5 1c       	adc	r13, r5
    13e6:	a2 14       	cp	r10, r2
    13e8:	b3 04       	cpc	r11, r3
    13ea:	c4 04       	cpc	r12, r4
    13ec:	d5 04       	cpc	r13, r5
    13ee:	48 f0       	brcs	.+18     	; 0x1402 <__umoddi3+0x530>
    13f0:	a2 16       	cp	r10, r18
    13f2:	b3 06       	cpc	r11, r19
    13f4:	c4 06       	cpc	r12, r20
    13f6:	d5 06       	cpc	r13, r21
    13f8:	20 f4       	brcc	.+8      	; 0x1402 <__umoddi3+0x530>
    13fa:	a2 0c       	add	r10, r2
    13fc:	b3 1c       	adc	r11, r3
    13fe:	c4 1c       	adc	r12, r4
    1400:	d5 1c       	adc	r13, r5
    1402:	6c 96       	adiw	r28, 0x1c	; 28
    1404:	ec ac       	ldd	r14, Y+60	; 0x3c
    1406:	fd ac       	ldd	r15, Y+61	; 0x3d
    1408:	0e ad       	ldd	r16, Y+62	; 0x3e
    140a:	1f ad       	ldd	r17, Y+63	; 0x3f
    140c:	6c 97       	sbiw	r28, 0x1c	; 28
    140e:	68 96       	adiw	r28, 0x18	; 24
    1410:	0f ac       	ldd	r0, Y+63	; 0x3f
    1412:	68 97       	sbiw	r28, 0x18	; 24
    1414:	04 c0       	rjmp	.+8      	; 0x141e <__umoddi3+0x54c>
    1416:	ee 0c       	add	r14, r14
    1418:	ff 1c       	adc	r15, r15
    141a:	00 1f       	adc	r16, r16
    141c:	11 1f       	adc	r17, r17
    141e:	0a 94       	dec	r0
    1420:	d2 f7       	brpl	.-12     	; 0x1416 <__umoddi3+0x544>
    1422:	e9 aa       	std	Y+49, r14	; 0x31
    1424:	fa aa       	std	Y+50, r15	; 0x32
    1426:	0b ab       	std	Y+51, r16	; 0x33
    1428:	1c ab       	std	Y+52, r17	; 0x34
    142a:	a2 1a       	sub	r10, r18
    142c:	b3 0a       	sbc	r11, r19
    142e:	c4 0a       	sbc	r12, r20
    1430:	d5 0a       	sbc	r13, r21
    1432:	32 01       	movw	r6, r4
    1434:	88 24       	eor	r8, r8
    1436:	99 24       	eor	r9, r9
    1438:	b2 01       	movw	r22, r4
    143a:	a1 01       	movw	r20, r2
    143c:	60 70       	andi	r22, 0x00	; 0
    143e:	70 70       	andi	r23, 0x00	; 0
    1440:	29 96       	adiw	r28, 0x09	; 9
    1442:	4c af       	std	Y+60, r20	; 0x3c
    1444:	5d af       	std	Y+61, r21	; 0x3d
    1446:	6e af       	std	Y+62, r22	; 0x3e
    1448:	7f af       	std	Y+63, r23	; 0x3f
    144a:	29 97       	sbiw	r28, 0x09	; 9
    144c:	c6 01       	movw	r24, r12
    144e:	b5 01       	movw	r22, r10
    1450:	a4 01       	movw	r20, r8
    1452:	93 01       	movw	r18, r6
    1454:	0e 94 24 26 	call	0x4c48	; 0x4c48 <__udivmodsi4>
    1458:	7b 01       	movw	r14, r22
    145a:	8c 01       	movw	r16, r24
    145c:	c6 01       	movw	r24, r12
    145e:	b5 01       	movw	r22, r10
    1460:	a4 01       	movw	r20, r8
    1462:	93 01       	movw	r18, r6
    1464:	0e 94 24 26 	call	0x4c48	; 0x4c48 <__udivmodsi4>
    1468:	ca 01       	movw	r24, r20
    146a:	b9 01       	movw	r22, r18
    146c:	29 96       	adiw	r28, 0x09	; 9
    146e:	2c ad       	ldd	r18, Y+60	; 0x3c
    1470:	3d ad       	ldd	r19, Y+61	; 0x3d
    1472:	4e ad       	ldd	r20, Y+62	; 0x3e
    1474:	5f ad       	ldd	r21, Y+63	; 0x3f
    1476:	29 97       	sbiw	r28, 0x09	; 9
    1478:	0e 94 05 26 	call	0x4c0a	; 0x4c0a <__mulsi3>
    147c:	9b 01       	movw	r18, r22
    147e:	ac 01       	movw	r20, r24
    1480:	87 01       	movw	r16, r14
    1482:	ff 24       	eor	r15, r15
    1484:	ee 24       	eor	r14, r14
    1486:	a9 a8       	ldd	r10, Y+49	; 0x31
    1488:	ba a8       	ldd	r11, Y+50	; 0x32
    148a:	cb a8       	ldd	r12, Y+51	; 0x33
    148c:	dc a8       	ldd	r13, Y+52	; 0x34
    148e:	c6 01       	movw	r24, r12
    1490:	aa 27       	eor	r26, r26
    1492:	bb 27       	eor	r27, r27
    1494:	57 01       	movw	r10, r14
    1496:	68 01       	movw	r12, r16
    1498:	a8 2a       	or	r10, r24
    149a:	b9 2a       	or	r11, r25
    149c:	ca 2a       	or	r12, r26
    149e:	db 2a       	or	r13, r27
    14a0:	a2 16       	cp	r10, r18
    14a2:	b3 06       	cpc	r11, r19
    14a4:	c4 06       	cpc	r12, r20
    14a6:	d5 06       	cpc	r13, r21
    14a8:	90 f4       	brcc	.+36     	; 0x14ce <__umoddi3+0x5fc>
    14aa:	a2 0c       	add	r10, r2
    14ac:	b3 1c       	adc	r11, r3
    14ae:	c4 1c       	adc	r12, r4
    14b0:	d5 1c       	adc	r13, r5
    14b2:	a2 14       	cp	r10, r2
    14b4:	b3 04       	cpc	r11, r3
    14b6:	c4 04       	cpc	r12, r4
    14b8:	d5 04       	cpc	r13, r5
    14ba:	48 f0       	brcs	.+18     	; 0x14ce <__umoddi3+0x5fc>
    14bc:	a2 16       	cp	r10, r18
    14be:	b3 06       	cpc	r11, r19
    14c0:	c4 06       	cpc	r12, r20
    14c2:	d5 06       	cpc	r13, r21
    14c4:	20 f4       	brcc	.+8      	; 0x14ce <__umoddi3+0x5fc>
    14c6:	a2 0c       	add	r10, r2
    14c8:	b3 1c       	adc	r11, r3
    14ca:	c4 1c       	adc	r12, r4
    14cc:	d5 1c       	adc	r13, r5
    14ce:	a2 1a       	sub	r10, r18
    14d0:	b3 0a       	sbc	r11, r19
    14d2:	c4 0a       	sbc	r12, r20
    14d4:	d5 0a       	sbc	r13, r21
    14d6:	c6 01       	movw	r24, r12
    14d8:	b5 01       	movw	r22, r10
    14da:	a4 01       	movw	r20, r8
    14dc:	93 01       	movw	r18, r6
    14de:	0e 94 24 26 	call	0x4c48	; 0x4c48 <__udivmodsi4>
    14e2:	7b 01       	movw	r14, r22
    14e4:	8c 01       	movw	r16, r24
    14e6:	c6 01       	movw	r24, r12
    14e8:	b5 01       	movw	r22, r10
    14ea:	a4 01       	movw	r20, r8
    14ec:	93 01       	movw	r18, r6
    14ee:	0e 94 24 26 	call	0x4c48	; 0x4c48 <__udivmodsi4>
    14f2:	ca 01       	movw	r24, r20
    14f4:	b9 01       	movw	r22, r18
    14f6:	29 96       	adiw	r28, 0x09	; 9
    14f8:	2c ad       	ldd	r18, Y+60	; 0x3c
    14fa:	3d ad       	ldd	r19, Y+61	; 0x3d
    14fc:	4e ad       	ldd	r20, Y+62	; 0x3e
    14fe:	5f ad       	ldd	r21, Y+63	; 0x3f
    1500:	29 97       	sbiw	r28, 0x09	; 9
    1502:	0e 94 05 26 	call	0x4c0a	; 0x4c0a <__mulsi3>
    1506:	9b 01       	movw	r18, r22
    1508:	ac 01       	movw	r20, r24
    150a:	87 01       	movw	r16, r14
    150c:	ff 24       	eor	r15, r15
    150e:	ee 24       	eor	r14, r14
    1510:	89 a9       	ldd	r24, Y+49	; 0x31
    1512:	9a a9       	ldd	r25, Y+50	; 0x32
    1514:	ab a9       	ldd	r26, Y+51	; 0x33
    1516:	bc a9       	ldd	r27, Y+52	; 0x34
    1518:	a0 70       	andi	r26, 0x00	; 0
    151a:	b0 70       	andi	r27, 0x00	; 0
    151c:	e8 2a       	or	r14, r24
    151e:	f9 2a       	or	r15, r25
    1520:	0a 2b       	or	r16, r26
    1522:	1b 2b       	or	r17, r27
    1524:	e2 16       	cp	r14, r18
    1526:	f3 06       	cpc	r15, r19
    1528:	04 07       	cpc	r16, r20
    152a:	15 07       	cpc	r17, r21
    152c:	90 f4       	brcc	.+36     	; 0x1552 <__umoddi3+0x680>
    152e:	e2 0c       	add	r14, r2
    1530:	f3 1c       	adc	r15, r3
    1532:	04 1d       	adc	r16, r4
    1534:	15 1d       	adc	r17, r5
    1536:	e2 14       	cp	r14, r2
    1538:	f3 04       	cpc	r15, r3
    153a:	04 05       	cpc	r16, r4
    153c:	15 05       	cpc	r17, r5
    153e:	48 f0       	brcs	.+18     	; 0x1552 <__umoddi3+0x680>
    1540:	e2 16       	cp	r14, r18
    1542:	f3 06       	cpc	r15, r19
    1544:	04 07       	cpc	r16, r20
    1546:	15 07       	cpc	r17, r21
    1548:	20 f4       	brcc	.+8      	; 0x1552 <__umoddi3+0x680>
    154a:	e2 0c       	add	r14, r2
    154c:	f3 1c       	adc	r15, r3
    154e:	04 1d       	adc	r16, r4
    1550:	15 1d       	adc	r17, r5
    1552:	e2 1a       	sub	r14, r18
    1554:	f3 0a       	sbc	r15, r19
    1556:	04 0b       	sbc	r16, r20
    1558:	15 0b       	sbc	r17, r21
    155a:	d8 01       	movw	r26, r16
    155c:	c7 01       	movw	r24, r14
    155e:	09 ac       	ldd	r0, Y+57	; 0x39
    1560:	04 c0       	rjmp	.+8      	; 0x156a <__umoddi3+0x698>
    1562:	b6 95       	lsr	r27
    1564:	a7 95       	ror	r26
    1566:	97 95       	ror	r25
    1568:	87 95       	ror	r24
    156a:	0a 94       	dec	r0
    156c:	d2 f7       	brpl	.-12     	; 0x1562 <__umoddi3+0x690>
    156e:	89 8b       	std	Y+17, r24	; 0x11
    1570:	9a 8b       	std	Y+18, r25	; 0x12
    1572:	ab 8b       	std	Y+19, r26	; 0x13
    1574:	bc 8b       	std	Y+20, r27	; 0x14
    1576:	1d 8a       	std	Y+21, r1	; 0x15
    1578:	1e 8a       	std	Y+22, r1	; 0x16
    157a:	1f 8a       	std	Y+23, r1	; 0x17
    157c:	18 8e       	std	Y+24, r1	; 0x18
    157e:	28 2f       	mov	r18, r24
    1580:	3a 89       	ldd	r19, Y+18	; 0x12
    1582:	4b 89       	ldd	r20, Y+19	; 0x13
    1584:	5c 89       	ldd	r21, Y+20	; 0x14
    1586:	6d 89       	ldd	r22, Y+21	; 0x15
    1588:	0c c3       	rjmp	.+1560   	; 0x1ba2 <__umoddi3+0xcd0>
    158a:	6a 14       	cp	r6, r10
    158c:	7b 04       	cpc	r7, r11
    158e:	8c 04       	cpc	r8, r12
    1590:	9d 04       	cpc	r9, r13
    1592:	08 f4       	brcc	.+2      	; 0x1596 <__umoddi3+0x6c4>
    1594:	09 c3       	rjmp	.+1554   	; 0x1ba8 <__umoddi3+0xcd6>
    1596:	00 e0       	ldi	r16, 0x00	; 0
    1598:	a0 16       	cp	r10, r16
    159a:	00 e0       	ldi	r16, 0x00	; 0
    159c:	b0 06       	cpc	r11, r16
    159e:	01 e0       	ldi	r16, 0x01	; 1
    15a0:	c0 06       	cpc	r12, r16
    15a2:	00 e0       	ldi	r16, 0x00	; 0
    15a4:	d0 06       	cpc	r13, r16
    15a6:	88 f4       	brcc	.+34     	; 0x15ca <__umoddi3+0x6f8>
    15a8:	1f ef       	ldi	r17, 0xFF	; 255
    15aa:	a1 16       	cp	r10, r17
    15ac:	b1 04       	cpc	r11, r1
    15ae:	c1 04       	cpc	r12, r1
    15b0:	d1 04       	cpc	r13, r1
    15b2:	39 f0       	breq	.+14     	; 0x15c2 <__umoddi3+0x6f0>
    15b4:	30 f0       	brcs	.+12     	; 0x15c2 <__umoddi3+0x6f0>
    15b6:	28 e0       	ldi	r18, 0x08	; 8
    15b8:	e2 2e       	mov	r14, r18
    15ba:	f1 2c       	mov	r15, r1
    15bc:	01 2d       	mov	r16, r1
    15be:	11 2d       	mov	r17, r1
    15c0:	18 c0       	rjmp	.+48     	; 0x15f2 <__umoddi3+0x720>
    15c2:	ee 24       	eor	r14, r14
    15c4:	ff 24       	eor	r15, r15
    15c6:	87 01       	movw	r16, r14
    15c8:	14 c0       	rjmp	.+40     	; 0x15f2 <__umoddi3+0x720>
    15ca:	40 e0       	ldi	r20, 0x00	; 0
    15cc:	a4 16       	cp	r10, r20
    15ce:	40 e0       	ldi	r20, 0x00	; 0
    15d0:	b4 06       	cpc	r11, r20
    15d2:	40 e0       	ldi	r20, 0x00	; 0
    15d4:	c4 06       	cpc	r12, r20
    15d6:	41 e0       	ldi	r20, 0x01	; 1
    15d8:	d4 06       	cpc	r13, r20
    15da:	30 f0       	brcs	.+12     	; 0x15e8 <__umoddi3+0x716>
    15dc:	98 e1       	ldi	r25, 0x18	; 24
    15de:	e9 2e       	mov	r14, r25
    15e0:	f1 2c       	mov	r15, r1
    15e2:	01 2d       	mov	r16, r1
    15e4:	11 2d       	mov	r17, r1
    15e6:	05 c0       	rjmp	.+10     	; 0x15f2 <__umoddi3+0x720>
    15e8:	80 e1       	ldi	r24, 0x10	; 16
    15ea:	e8 2e       	mov	r14, r24
    15ec:	f1 2c       	mov	r15, r1
    15ee:	01 2d       	mov	r16, r1
    15f0:	11 2d       	mov	r17, r1
    15f2:	d6 01       	movw	r26, r12
    15f4:	c5 01       	movw	r24, r10
    15f6:	0e 2c       	mov	r0, r14
    15f8:	04 c0       	rjmp	.+8      	; 0x1602 <__umoddi3+0x730>
    15fa:	b6 95       	lsr	r27
    15fc:	a7 95       	ror	r26
    15fe:	97 95       	ror	r25
    1600:	87 95       	ror	r24
    1602:	0a 94       	dec	r0
    1604:	d2 f7       	brpl	.-12     	; 0x15fa <__umoddi3+0x728>
    1606:	82 57       	subi	r24, 0x72	; 114
    1608:	9e 4f       	sbci	r25, 0xFE	; 254
    160a:	dc 01       	movw	r26, r24
    160c:	2c 91       	ld	r18, X
    160e:	80 e2       	ldi	r24, 0x20	; 32
    1610:	90 e0       	ldi	r25, 0x00	; 0
    1612:	a0 e0       	ldi	r26, 0x00	; 0
    1614:	b0 e0       	ldi	r27, 0x00	; 0
    1616:	8e 19       	sub	r24, r14
    1618:	9f 09       	sbc	r25, r15
    161a:	a0 0b       	sbc	r26, r16
    161c:	b1 0b       	sbc	r27, r17
    161e:	82 1b       	sub	r24, r18
    1620:	91 09       	sbc	r25, r1
    1622:	a1 09       	sbc	r26, r1
    1624:	b1 09       	sbc	r27, r1
    1626:	00 97       	sbiw	r24, 0x00	; 0
    1628:	a1 05       	cpc	r26, r1
    162a:	b1 05       	cpc	r27, r1
    162c:	09 f0       	breq	.+2      	; 0x1630 <__umoddi3+0x75e>
    162e:	4f c0       	rjmp	.+158    	; 0x16ce <__umoddi3+0x7fc>
    1630:	a6 14       	cp	r10, r6
    1632:	b7 04       	cpc	r11, r7
    1634:	c8 04       	cpc	r12, r8
    1636:	d9 04       	cpc	r13, r9
    1638:	58 f0       	brcs	.+22     	; 0x1650 <__umoddi3+0x77e>
    163a:	6c 96       	adiw	r28, 0x1c	; 28
    163c:	ec ac       	ldd	r14, Y+60	; 0x3c
    163e:	fd ac       	ldd	r15, Y+61	; 0x3d
    1640:	0e ad       	ldd	r16, Y+62	; 0x3e
    1642:	1f ad       	ldd	r17, Y+63	; 0x3f
    1644:	6c 97       	sbiw	r28, 0x1c	; 28
    1646:	e2 14       	cp	r14, r2
    1648:	f3 04       	cpc	r15, r3
    164a:	04 05       	cpc	r16, r4
    164c:	15 05       	cpc	r17, r5
    164e:	68 f1       	brcs	.+90     	; 0x16aa <__umoddi3+0x7d8>
    1650:	6c 96       	adiw	r28, 0x1c	; 28
    1652:	ec ac       	ldd	r14, Y+60	; 0x3c
    1654:	fd ac       	ldd	r15, Y+61	; 0x3d
    1656:	0e ad       	ldd	r16, Y+62	; 0x3e
    1658:	1f ad       	ldd	r17, Y+63	; 0x3f
    165a:	6c 97       	sbiw	r28, 0x1c	; 28
    165c:	e2 18       	sub	r14, r2
    165e:	f3 08       	sbc	r15, r3
    1660:	04 09       	sbc	r16, r4
    1662:	15 09       	sbc	r17, r5
    1664:	a4 01       	movw	r20, r8
    1666:	93 01       	movw	r18, r6
    1668:	2a 19       	sub	r18, r10
    166a:	3b 09       	sbc	r19, r11
    166c:	4c 09       	sbc	r20, r12
    166e:	5d 09       	sbc	r21, r13
    1670:	aa 24       	eor	r10, r10
    1672:	bb 24       	eor	r11, r11
    1674:	65 01       	movw	r12, r10
    1676:	6c 96       	adiw	r28, 0x1c	; 28
    1678:	6c ad       	ldd	r22, Y+60	; 0x3c
    167a:	7d ad       	ldd	r23, Y+61	; 0x3d
    167c:	8e ad       	ldd	r24, Y+62	; 0x3e
    167e:	9f ad       	ldd	r25, Y+63	; 0x3f
    1680:	6c 97       	sbiw	r28, 0x1c	; 28
    1682:	6e 15       	cp	r22, r14
    1684:	7f 05       	cpc	r23, r15
    1686:	80 07       	cpc	r24, r16
    1688:	91 07       	cpc	r25, r17
    168a:	28 f4       	brcc	.+10     	; 0x1696 <__umoddi3+0x7c4>
    168c:	b1 e0       	ldi	r27, 0x01	; 1
    168e:	ab 2e       	mov	r10, r27
    1690:	b1 2c       	mov	r11, r1
    1692:	c1 2c       	mov	r12, r1
    1694:	d1 2c       	mov	r13, r1
    1696:	da 01       	movw	r26, r20
    1698:	c9 01       	movw	r24, r18
    169a:	8a 19       	sub	r24, r10
    169c:	9b 09       	sbc	r25, r11
    169e:	ac 09       	sbc	r26, r12
    16a0:	bd 09       	sbc	r27, r13
    16a2:	8d ab       	std	Y+53, r24	; 0x35
    16a4:	9e ab       	std	Y+54, r25	; 0x36
    16a6:	af ab       	std	Y+55, r26	; 0x37
    16a8:	b8 af       	std	Y+56, r27	; 0x38
    16aa:	e9 8a       	std	Y+17, r14	; 0x11
    16ac:	fa 8a       	std	Y+18, r15	; 0x12
    16ae:	0b 8b       	std	Y+19, r16	; 0x13
    16b0:	1c 8b       	std	Y+20, r17	; 0x14
    16b2:	6d a8       	ldd	r6, Y+53	; 0x35
    16b4:	7e a8       	ldd	r7, Y+54	; 0x36
    16b6:	8f a8       	ldd	r8, Y+55	; 0x37
    16b8:	98 ac       	ldd	r9, Y+56	; 0x38
    16ba:	6d 8a       	std	Y+21, r6	; 0x15
    16bc:	7e 8a       	std	Y+22, r7	; 0x16
    16be:	8f 8a       	std	Y+23, r8	; 0x17
    16c0:	98 8e       	std	Y+24, r9	; 0x18
    16c2:	2e 2d       	mov	r18, r14
    16c4:	3a 89       	ldd	r19, Y+18	; 0x12
    16c6:	4b 89       	ldd	r20, Y+19	; 0x13
    16c8:	5c 89       	ldd	r21, Y+20	; 0x14
    16ca:	6d a9       	ldd	r22, Y+53	; 0x35
    16cc:	6a c2       	rjmp	.+1236   	; 0x1ba2 <__umoddi3+0xcd0>
    16ce:	67 96       	adiw	r28, 0x17	; 23
    16d0:	8f af       	std	Y+63, r24	; 0x3f
    16d2:	67 97       	sbiw	r28, 0x17	; 23
    16d4:	a6 01       	movw	r20, r12
    16d6:	95 01       	movw	r18, r10
    16d8:	08 2e       	mov	r0, r24
    16da:	04 c0       	rjmp	.+8      	; 0x16e4 <__umoddi3+0x812>
    16dc:	22 0f       	add	r18, r18
    16de:	33 1f       	adc	r19, r19
    16e0:	44 1f       	adc	r20, r20
    16e2:	55 1f       	adc	r21, r21
    16e4:	0a 94       	dec	r0
    16e6:	d2 f7       	brpl	.-12     	; 0x16dc <__umoddi3+0x80a>
    16e8:	a0 e2       	ldi	r26, 0x20	; 32
    16ea:	aa 2e       	mov	r10, r26
    16ec:	a8 1a       	sub	r10, r24
    16ee:	66 96       	adiw	r28, 0x16	; 22
    16f0:	af ae       	std	Y+63, r10	; 0x3f
    16f2:	66 97       	sbiw	r28, 0x16	; 22
    16f4:	d2 01       	movw	r26, r4
    16f6:	c1 01       	movw	r24, r2
    16f8:	04 c0       	rjmp	.+8      	; 0x1702 <__umoddi3+0x830>
    16fa:	b6 95       	lsr	r27
    16fc:	a7 95       	ror	r26
    16fe:	97 95       	ror	r25
    1700:	87 95       	ror	r24
    1702:	aa 94       	dec	r10
    1704:	d2 f7       	brpl	.-12     	; 0x16fa <__umoddi3+0x828>
    1706:	6c 01       	movw	r12, r24
    1708:	7d 01       	movw	r14, r26
    170a:	c2 2a       	or	r12, r18
    170c:	d3 2a       	or	r13, r19
    170e:	e4 2a       	or	r14, r20
    1710:	f5 2a       	or	r15, r21
    1712:	c9 a6       	std	Y+41, r12	; 0x29
    1714:	da a6       	std	Y+42, r13	; 0x2a
    1716:	eb a6       	std	Y+43, r14	; 0x2b
    1718:	fc a6       	std	Y+44, r15	; 0x2c
    171a:	82 01       	movw	r16, r4
    171c:	71 01       	movw	r14, r2
    171e:	67 96       	adiw	r28, 0x17	; 23
    1720:	0f ac       	ldd	r0, Y+63	; 0x3f
    1722:	67 97       	sbiw	r28, 0x17	; 23
    1724:	04 c0       	rjmp	.+8      	; 0x172e <__umoddi3+0x85c>
    1726:	ee 0c       	add	r14, r14
    1728:	ff 1c       	adc	r15, r15
    172a:	00 1f       	adc	r16, r16
    172c:	11 1f       	adc	r17, r17
    172e:	0a 94       	dec	r0
    1730:	d2 f7       	brpl	.-12     	; 0x1726 <__umoddi3+0x854>
    1732:	ed a2       	std	Y+37, r14	; 0x25
    1734:	fe a2       	std	Y+38, r15	; 0x26
    1736:	0f a3       	std	Y+39, r16	; 0x27
    1738:	18 a7       	std	Y+40, r17	; 0x28
    173a:	64 01       	movw	r12, r8
    173c:	53 01       	movw	r10, r6
    173e:	66 96       	adiw	r28, 0x16	; 22
    1740:	0f ac       	ldd	r0, Y+63	; 0x3f
    1742:	66 97       	sbiw	r28, 0x16	; 22
    1744:	04 c0       	rjmp	.+8      	; 0x174e <__umoddi3+0x87c>
    1746:	d6 94       	lsr	r13
    1748:	c7 94       	ror	r12
    174a:	b7 94       	ror	r11
    174c:	a7 94       	ror	r10
    174e:	0a 94       	dec	r0
    1750:	d2 f7       	brpl	.-12     	; 0x1746 <__umoddi3+0x874>
    1752:	a4 01       	movw	r20, r8
    1754:	93 01       	movw	r18, r6
    1756:	67 96       	adiw	r28, 0x17	; 23
    1758:	0f ac       	ldd	r0, Y+63	; 0x3f
    175a:	67 97       	sbiw	r28, 0x17	; 23
    175c:	04 c0       	rjmp	.+8      	; 0x1766 <__umoddi3+0x894>
    175e:	22 0f       	add	r18, r18
    1760:	33 1f       	adc	r19, r19
    1762:	44 1f       	adc	r20, r20
    1764:	55 1f       	adc	r21, r21
    1766:	0a 94       	dec	r0
    1768:	d2 f7       	brpl	.-12     	; 0x175e <__umoddi3+0x88c>
    176a:	6c 96       	adiw	r28, 0x1c	; 28
    176c:	8c ad       	ldd	r24, Y+60	; 0x3c
    176e:	9d ad       	ldd	r25, Y+61	; 0x3d
    1770:	ae ad       	ldd	r26, Y+62	; 0x3e
    1772:	bf ad       	ldd	r27, Y+63	; 0x3f
    1774:	6c 97       	sbiw	r28, 0x1c	; 28
    1776:	66 96       	adiw	r28, 0x16	; 22
    1778:	0f ac       	ldd	r0, Y+63	; 0x3f
    177a:	66 97       	sbiw	r28, 0x16	; 22
    177c:	04 c0       	rjmp	.+8      	; 0x1786 <__umoddi3+0x8b4>
    177e:	b6 95       	lsr	r27
    1780:	a7 95       	ror	r26
    1782:	97 95       	ror	r25
    1784:	87 95       	ror	r24
    1786:	0a 94       	dec	r0
    1788:	d2 f7       	brpl	.-12     	; 0x177e <__umoddi3+0x8ac>
    178a:	3c 01       	movw	r6, r24
    178c:	4d 01       	movw	r8, r26
    178e:	62 2a       	or	r6, r18
    1790:	73 2a       	or	r7, r19
    1792:	84 2a       	or	r8, r20
    1794:	95 2a       	or	r9, r21
    1796:	69 a2       	std	Y+33, r6	; 0x21
    1798:	7a a2       	std	Y+34, r7	; 0x22
    179a:	8b a2       	std	Y+35, r8	; 0x23
    179c:	9c a2       	std	Y+36, r9	; 0x24
    179e:	6c 96       	adiw	r28, 0x1c	; 28
    17a0:	ec ac       	ldd	r14, Y+60	; 0x3c
    17a2:	fd ac       	ldd	r15, Y+61	; 0x3d
    17a4:	0e ad       	ldd	r16, Y+62	; 0x3e
    17a6:	1f ad       	ldd	r17, Y+63	; 0x3f
    17a8:	6c 97       	sbiw	r28, 0x1c	; 28
    17aa:	67 96       	adiw	r28, 0x17	; 23
    17ac:	0f ac       	ldd	r0, Y+63	; 0x3f
    17ae:	67 97       	sbiw	r28, 0x17	; 23
    17b0:	04 c0       	rjmp	.+8      	; 0x17ba <__umoddi3+0x8e8>
    17b2:	ee 0c       	add	r14, r14
    17b4:	ff 1c       	adc	r15, r15
    17b6:	00 1f       	adc	r16, r16
    17b8:	11 1f       	adc	r17, r17
    17ba:	0a 94       	dec	r0
    17bc:	d2 f7       	brpl	.-12     	; 0x17b2 <__umoddi3+0x8e0>
    17be:	ed 8e       	std	Y+29, r14	; 0x1d
    17c0:	fe 8e       	std	Y+30, r15	; 0x1e
    17c2:	0f 8f       	std	Y+31, r16	; 0x1f
    17c4:	18 a3       	std	Y+32, r17	; 0x20
    17c6:	49 a5       	ldd	r20, Y+41	; 0x29
    17c8:	5a a5       	ldd	r21, Y+42	; 0x2a
    17ca:	6b a5       	ldd	r22, Y+43	; 0x2b
    17cc:	7c a5       	ldd	r23, Y+44	; 0x2c
    17ce:	3b 01       	movw	r6, r22
    17d0:	88 24       	eor	r8, r8
    17d2:	99 24       	eor	r9, r9
    17d4:	60 70       	andi	r22, 0x00	; 0
    17d6:	70 70       	andi	r23, 0x00	; 0
    17d8:	2d 96       	adiw	r28, 0x0d	; 13
    17da:	4c af       	std	Y+60, r20	; 0x3c
    17dc:	5d af       	std	Y+61, r21	; 0x3d
    17de:	6e af       	std	Y+62, r22	; 0x3e
    17e0:	7f af       	std	Y+63, r23	; 0x3f
    17e2:	2d 97       	sbiw	r28, 0x0d	; 13
    17e4:	c6 01       	movw	r24, r12
    17e6:	b5 01       	movw	r22, r10
    17e8:	a4 01       	movw	r20, r8
    17ea:	93 01       	movw	r18, r6
    17ec:	0e 94 24 26 	call	0x4c48	; 0x4c48 <__udivmodsi4>
    17f0:	7b 01       	movw	r14, r22
    17f2:	8c 01       	movw	r16, r24
    17f4:	c6 01       	movw	r24, r12
    17f6:	b5 01       	movw	r22, r10
    17f8:	a4 01       	movw	r20, r8
    17fa:	93 01       	movw	r18, r6
    17fc:	0e 94 24 26 	call	0x4c48	; 0x4c48 <__udivmodsi4>
    1800:	c9 01       	movw	r24, r18
    1802:	da 01       	movw	r26, r20
    1804:	1c 01       	movw	r2, r24
    1806:	2d 01       	movw	r4, r26
    1808:	c2 01       	movw	r24, r4
    180a:	b1 01       	movw	r22, r2
    180c:	2d 96       	adiw	r28, 0x0d	; 13
    180e:	2c ad       	ldd	r18, Y+60	; 0x3c
    1810:	3d ad       	ldd	r19, Y+61	; 0x3d
    1812:	4e ad       	ldd	r20, Y+62	; 0x3e
    1814:	5f ad       	ldd	r21, Y+63	; 0x3f
    1816:	2d 97       	sbiw	r28, 0x0d	; 13
    1818:	0e 94 05 26 	call	0x4c0a	; 0x4c0a <__mulsi3>
    181c:	9b 01       	movw	r18, r22
    181e:	ac 01       	movw	r20, r24
    1820:	87 01       	movw	r16, r14
    1822:	ff 24       	eor	r15, r15
    1824:	ee 24       	eor	r14, r14
    1826:	a9 a0       	ldd	r10, Y+33	; 0x21
    1828:	ba a0       	ldd	r11, Y+34	; 0x22
    182a:	cb a0       	ldd	r12, Y+35	; 0x23
    182c:	dc a0       	ldd	r13, Y+36	; 0x24
    182e:	c6 01       	movw	r24, r12
    1830:	aa 27       	eor	r26, r26
    1832:	bb 27       	eor	r27, r27
    1834:	57 01       	movw	r10, r14
    1836:	68 01       	movw	r12, r16
    1838:	a8 2a       	or	r10, r24
    183a:	b9 2a       	or	r11, r25
    183c:	ca 2a       	or	r12, r26
    183e:	db 2a       	or	r13, r27
    1840:	a2 16       	cp	r10, r18
    1842:	b3 06       	cpc	r11, r19
    1844:	c4 06       	cpc	r12, r20
    1846:	d5 06       	cpc	r13, r21
    1848:	00 f5       	brcc	.+64     	; 0x188a <__umoddi3+0x9b8>
    184a:	08 94       	sec
    184c:	21 08       	sbc	r2, r1
    184e:	31 08       	sbc	r3, r1
    1850:	41 08       	sbc	r4, r1
    1852:	51 08       	sbc	r5, r1
    1854:	e9 a4       	ldd	r14, Y+41	; 0x29
    1856:	fa a4       	ldd	r15, Y+42	; 0x2a
    1858:	0b a5       	ldd	r16, Y+43	; 0x2b
    185a:	1c a5       	ldd	r17, Y+44	; 0x2c
    185c:	ae 0c       	add	r10, r14
    185e:	bf 1c       	adc	r11, r15
    1860:	c0 1e       	adc	r12, r16
    1862:	d1 1e       	adc	r13, r17
    1864:	ae 14       	cp	r10, r14
    1866:	bf 04       	cpc	r11, r15
    1868:	c0 06       	cpc	r12, r16
    186a:	d1 06       	cpc	r13, r17
    186c:	70 f0       	brcs	.+28     	; 0x188a <__umoddi3+0x9b8>
    186e:	a2 16       	cp	r10, r18
    1870:	b3 06       	cpc	r11, r19
    1872:	c4 06       	cpc	r12, r20
    1874:	d5 06       	cpc	r13, r21
    1876:	48 f4       	brcc	.+18     	; 0x188a <__umoddi3+0x9b8>
    1878:	08 94       	sec
    187a:	21 08       	sbc	r2, r1
    187c:	31 08       	sbc	r3, r1
    187e:	41 08       	sbc	r4, r1
    1880:	51 08       	sbc	r5, r1
    1882:	ae 0c       	add	r10, r14
    1884:	bf 1c       	adc	r11, r15
    1886:	c0 1e       	adc	r12, r16
    1888:	d1 1e       	adc	r13, r17
    188a:	a2 1a       	sub	r10, r18
    188c:	b3 0a       	sbc	r11, r19
    188e:	c4 0a       	sbc	r12, r20
    1890:	d5 0a       	sbc	r13, r21
    1892:	c6 01       	movw	r24, r12
    1894:	b5 01       	movw	r22, r10
    1896:	a4 01       	movw	r20, r8
    1898:	93 01       	movw	r18, r6
    189a:	0e 94 24 26 	call	0x4c48	; 0x4c48 <__udivmodsi4>
    189e:	7b 01       	movw	r14, r22
    18a0:	8c 01       	movw	r16, r24
    18a2:	c6 01       	movw	r24, r12
    18a4:	b5 01       	movw	r22, r10
    18a6:	a4 01       	movw	r20, r8
    18a8:	93 01       	movw	r18, r6
    18aa:	0e 94 24 26 	call	0x4c48	; 0x4c48 <__udivmodsi4>
    18ae:	c9 01       	movw	r24, r18
    18b0:	da 01       	movw	r26, r20
    18b2:	3c 01       	movw	r6, r24
    18b4:	4d 01       	movw	r8, r26
    18b6:	c4 01       	movw	r24, r8
    18b8:	b3 01       	movw	r22, r6
    18ba:	2d 96       	adiw	r28, 0x0d	; 13
    18bc:	2c ad       	ldd	r18, Y+60	; 0x3c
    18be:	3d ad       	ldd	r19, Y+61	; 0x3d
    18c0:	4e ad       	ldd	r20, Y+62	; 0x3e
    18c2:	5f ad       	ldd	r21, Y+63	; 0x3f
    18c4:	2d 97       	sbiw	r28, 0x0d	; 13
    18c6:	0e 94 05 26 	call	0x4c0a	; 0x4c0a <__mulsi3>
    18ca:	9b 01       	movw	r18, r22
    18cc:	ac 01       	movw	r20, r24
    18ce:	87 01       	movw	r16, r14
    18d0:	ff 24       	eor	r15, r15
    18d2:	ee 24       	eor	r14, r14
    18d4:	89 a1       	ldd	r24, Y+33	; 0x21
    18d6:	9a a1       	ldd	r25, Y+34	; 0x22
    18d8:	ab a1       	ldd	r26, Y+35	; 0x23
    18da:	bc a1       	ldd	r27, Y+36	; 0x24
    18dc:	a0 70       	andi	r26, 0x00	; 0
    18de:	b0 70       	andi	r27, 0x00	; 0
    18e0:	57 01       	movw	r10, r14
    18e2:	68 01       	movw	r12, r16
    18e4:	a8 2a       	or	r10, r24
    18e6:	b9 2a       	or	r11, r25
    18e8:	ca 2a       	or	r12, r26
    18ea:	db 2a       	or	r13, r27
    18ec:	a2 16       	cp	r10, r18
    18ee:	b3 06       	cpc	r11, r19
    18f0:	c4 06       	cpc	r12, r20
    18f2:	d5 06       	cpc	r13, r21
    18f4:	00 f5       	brcc	.+64     	; 0x1936 <__umoddi3+0xa64>
    18f6:	08 94       	sec
    18f8:	61 08       	sbc	r6, r1
    18fa:	71 08       	sbc	r7, r1
    18fc:	81 08       	sbc	r8, r1
    18fe:	91 08       	sbc	r9, r1
    1900:	69 a5       	ldd	r22, Y+41	; 0x29
    1902:	7a a5       	ldd	r23, Y+42	; 0x2a
    1904:	8b a5       	ldd	r24, Y+43	; 0x2b
    1906:	9c a5       	ldd	r25, Y+44	; 0x2c
    1908:	a6 0e       	add	r10, r22
    190a:	b7 1e       	adc	r11, r23
    190c:	c8 1e       	adc	r12, r24
    190e:	d9 1e       	adc	r13, r25
    1910:	a6 16       	cp	r10, r22
    1912:	b7 06       	cpc	r11, r23
    1914:	c8 06       	cpc	r12, r24
    1916:	d9 06       	cpc	r13, r25
    1918:	70 f0       	brcs	.+28     	; 0x1936 <__umoddi3+0xa64>
    191a:	a2 16       	cp	r10, r18
    191c:	b3 06       	cpc	r11, r19
    191e:	c4 06       	cpc	r12, r20
    1920:	d5 06       	cpc	r13, r21
    1922:	48 f4       	brcc	.+18     	; 0x1936 <__umoddi3+0xa64>
    1924:	08 94       	sec
    1926:	61 08       	sbc	r6, r1
    1928:	71 08       	sbc	r7, r1
    192a:	81 08       	sbc	r8, r1
    192c:	91 08       	sbc	r9, r1
    192e:	a6 0e       	add	r10, r22
    1930:	b7 1e       	adc	r11, r23
    1932:	c8 1e       	adc	r12, r24
    1934:	d9 1e       	adc	r13, r25
    1936:	d6 01       	movw	r26, r12
    1938:	c5 01       	movw	r24, r10
    193a:	82 1b       	sub	r24, r18
    193c:	93 0b       	sbc	r25, r19
    193e:	a4 0b       	sbc	r26, r20
    1940:	b5 0b       	sbc	r27, r21
    1942:	89 8f       	std	Y+25, r24	; 0x19
    1944:	9a 8f       	std	Y+26, r25	; 0x1a
    1946:	ab 8f       	std	Y+27, r26	; 0x1b
    1948:	bc 8f       	std	Y+28, r27	; 0x1c
    194a:	d1 01       	movw	r26, r2
    194c:	99 27       	eor	r25, r25
    194e:	88 27       	eor	r24, r24
    1950:	84 01       	movw	r16, r8
    1952:	73 01       	movw	r14, r6
    1954:	e8 2a       	or	r14, r24
    1956:	f9 2a       	or	r15, r25
    1958:	0a 2b       	or	r16, r26
    195a:	1b 2b       	or	r17, r27
    195c:	4f ef       	ldi	r20, 0xFF	; 255
    195e:	a4 2e       	mov	r10, r20
    1960:	4f ef       	ldi	r20, 0xFF	; 255
    1962:	b4 2e       	mov	r11, r20
    1964:	c1 2c       	mov	r12, r1
    1966:	d1 2c       	mov	r13, r1
    1968:	ae 20       	and	r10, r14
    196a:	bf 20       	and	r11, r15
    196c:	c0 22       	and	r12, r16
    196e:	d1 22       	and	r13, r17
    1970:	78 01       	movw	r14, r16
    1972:	00 27       	eor	r16, r16
    1974:	11 27       	eor	r17, r17
    1976:	6d a0       	ldd	r6, Y+37	; 0x25
    1978:	7e a0       	ldd	r7, Y+38	; 0x26
    197a:	8f a0       	ldd	r8, Y+39	; 0x27
    197c:	98 a4       	ldd	r9, Y+40	; 0x28
    197e:	4f ef       	ldi	r20, 0xFF	; 255
    1980:	5f ef       	ldi	r21, 0xFF	; 255
    1982:	60 e0       	ldi	r22, 0x00	; 0
    1984:	70 e0       	ldi	r23, 0x00	; 0
    1986:	64 22       	and	r6, r20
    1988:	75 22       	and	r7, r21
    198a:	86 22       	and	r8, r22
    198c:	97 22       	and	r9, r23
    198e:	8d a1       	ldd	r24, Y+37	; 0x25
    1990:	9e a1       	ldd	r25, Y+38	; 0x26
    1992:	af a1       	ldd	r26, Y+39	; 0x27
    1994:	b8 a5       	ldd	r27, Y+40	; 0x28
    1996:	bd 01       	movw	r22, r26
    1998:	88 27       	eor	r24, r24
    199a:	99 27       	eor	r25, r25
    199c:	65 96       	adiw	r28, 0x15	; 21
    199e:	6c af       	std	Y+60, r22	; 0x3c
    19a0:	7d af       	std	Y+61, r23	; 0x3d
    19a2:	8e af       	std	Y+62, r24	; 0x3e
    19a4:	9f af       	std	Y+63, r25	; 0x3f
    19a6:	65 97       	sbiw	r28, 0x15	; 21
    19a8:	c6 01       	movw	r24, r12
    19aa:	b5 01       	movw	r22, r10
    19ac:	a4 01       	movw	r20, r8
    19ae:	93 01       	movw	r18, r6
    19b0:	0e 94 05 26 	call	0x4c0a	; 0x4c0a <__mulsi3>
    19b4:	61 96       	adiw	r28, 0x11	; 17
    19b6:	6c af       	std	Y+60, r22	; 0x3c
    19b8:	7d af       	std	Y+61, r23	; 0x3d
    19ba:	8e af       	std	Y+62, r24	; 0x3e
    19bc:	9f af       	std	Y+63, r25	; 0x3f
    19be:	61 97       	sbiw	r28, 0x11	; 17
    19c0:	c6 01       	movw	r24, r12
    19c2:	b5 01       	movw	r22, r10
    19c4:	65 96       	adiw	r28, 0x15	; 21
    19c6:	2c ad       	ldd	r18, Y+60	; 0x3c
    19c8:	3d ad       	ldd	r19, Y+61	; 0x3d
    19ca:	4e ad       	ldd	r20, Y+62	; 0x3e
    19cc:	5f ad       	ldd	r21, Y+63	; 0x3f
    19ce:	65 97       	sbiw	r28, 0x15	; 21
    19d0:	0e 94 05 26 	call	0x4c0a	; 0x4c0a <__mulsi3>
    19d4:	1b 01       	movw	r2, r22
    19d6:	2c 01       	movw	r4, r24
    19d8:	c8 01       	movw	r24, r16
    19da:	b7 01       	movw	r22, r14
    19dc:	a4 01       	movw	r20, r8
    19de:	93 01       	movw	r18, r6
    19e0:	0e 94 05 26 	call	0x4c0a	; 0x4c0a <__mulsi3>
    19e4:	5b 01       	movw	r10, r22
    19e6:	6c 01       	movw	r12, r24
    19e8:	c8 01       	movw	r24, r16
    19ea:	b7 01       	movw	r22, r14
    19ec:	65 96       	adiw	r28, 0x15	; 21
    19ee:	2c ad       	ldd	r18, Y+60	; 0x3c
    19f0:	3d ad       	ldd	r19, Y+61	; 0x3d
    19f2:	4e ad       	ldd	r20, Y+62	; 0x3e
    19f4:	5f ad       	ldd	r21, Y+63	; 0x3f
    19f6:	65 97       	sbiw	r28, 0x15	; 21
    19f8:	0e 94 05 26 	call	0x4c0a	; 0x4c0a <__mulsi3>
    19fc:	7b 01       	movw	r14, r22
    19fe:	8c 01       	movw	r16, r24
    1a00:	a6 01       	movw	r20, r12
    1a02:	95 01       	movw	r18, r10
    1a04:	22 0d       	add	r18, r2
    1a06:	33 1d       	adc	r19, r3
    1a08:	44 1d       	adc	r20, r4
    1a0a:	55 1d       	adc	r21, r5
    1a0c:	61 96       	adiw	r28, 0x11	; 17
    1a0e:	6c ac       	ldd	r6, Y+60	; 0x3c
    1a10:	7d ac       	ldd	r7, Y+61	; 0x3d
    1a12:	8e ac       	ldd	r8, Y+62	; 0x3e
    1a14:	9f ac       	ldd	r9, Y+63	; 0x3f
    1a16:	61 97       	sbiw	r28, 0x11	; 17
    1a18:	c4 01       	movw	r24, r8
    1a1a:	aa 27       	eor	r26, r26
    1a1c:	bb 27       	eor	r27, r27
    1a1e:	28 0f       	add	r18, r24
    1a20:	39 1f       	adc	r19, r25
    1a22:	4a 1f       	adc	r20, r26
    1a24:	5b 1f       	adc	r21, r27
    1a26:	2a 15       	cp	r18, r10
    1a28:	3b 05       	cpc	r19, r11
    1a2a:	4c 05       	cpc	r20, r12
    1a2c:	5d 05       	cpc	r21, r13
    1a2e:	48 f4       	brcc	.+18     	; 0x1a42 <__umoddi3+0xb70>
    1a30:	81 2c       	mov	r8, r1
    1a32:	91 2c       	mov	r9, r1
    1a34:	e1 e0       	ldi	r30, 0x01	; 1
    1a36:	ae 2e       	mov	r10, r30
    1a38:	b1 2c       	mov	r11, r1
    1a3a:	e8 0c       	add	r14, r8
    1a3c:	f9 1c       	adc	r15, r9
    1a3e:	0a 1d       	adc	r16, r10
    1a40:	1b 1d       	adc	r17, r11
    1a42:	ca 01       	movw	r24, r20
    1a44:	aa 27       	eor	r26, r26
    1a46:	bb 27       	eor	r27, r27
    1a48:	57 01       	movw	r10, r14
    1a4a:	68 01       	movw	r12, r16
    1a4c:	a8 0e       	add	r10, r24
    1a4e:	b9 1e       	adc	r11, r25
    1a50:	ca 1e       	adc	r12, r26
    1a52:	db 1e       	adc	r13, r27
    1a54:	a9 01       	movw	r20, r18
    1a56:	33 27       	eor	r19, r19
    1a58:	22 27       	eor	r18, r18
    1a5a:	61 96       	adiw	r28, 0x11	; 17
    1a5c:	8c ad       	ldd	r24, Y+60	; 0x3c
    1a5e:	9d ad       	ldd	r25, Y+61	; 0x3d
    1a60:	ae ad       	ldd	r26, Y+62	; 0x3e
    1a62:	bf ad       	ldd	r27, Y+63	; 0x3f
    1a64:	61 97       	sbiw	r28, 0x11	; 17
    1a66:	a0 70       	andi	r26, 0x00	; 0
    1a68:	b0 70       	andi	r27, 0x00	; 0
    1a6a:	28 0f       	add	r18, r24
    1a6c:	39 1f       	adc	r19, r25
    1a6e:	4a 1f       	adc	r20, r26
    1a70:	5b 1f       	adc	r21, r27
    1a72:	e9 8c       	ldd	r14, Y+25	; 0x19
    1a74:	fa 8c       	ldd	r15, Y+26	; 0x1a
    1a76:	0b 8d       	ldd	r16, Y+27	; 0x1b
    1a78:	1c 8d       	ldd	r17, Y+28	; 0x1c
    1a7a:	ea 14       	cp	r14, r10
    1a7c:	fb 04       	cpc	r15, r11
    1a7e:	0c 05       	cpc	r16, r12
    1a80:	1d 05       	cpc	r17, r13
    1a82:	70 f0       	brcs	.+28     	; 0x1aa0 <__umoddi3+0xbce>
    1a84:	ae 14       	cp	r10, r14
    1a86:	bf 04       	cpc	r11, r15
    1a88:	c0 06       	cpc	r12, r16
    1a8a:	d1 06       	cpc	r13, r17
    1a8c:	69 f5       	brne	.+90     	; 0x1ae8 <__umoddi3+0xc16>
    1a8e:	6d 8d       	ldd	r22, Y+29	; 0x1d
    1a90:	7e 8d       	ldd	r23, Y+30	; 0x1e
    1a92:	8f 8d       	ldd	r24, Y+31	; 0x1f
    1a94:	98 a1       	ldd	r25, Y+32	; 0x20
    1a96:	62 17       	cp	r22, r18
    1a98:	73 07       	cpc	r23, r19
    1a9a:	84 07       	cpc	r24, r20
    1a9c:	95 07       	cpc	r25, r21
    1a9e:	20 f5       	brcc	.+72     	; 0x1ae8 <__umoddi3+0xc16>
    1aa0:	da 01       	movw	r26, r20
    1aa2:	c9 01       	movw	r24, r18
    1aa4:	6d a0       	ldd	r6, Y+37	; 0x25
    1aa6:	7e a0       	ldd	r7, Y+38	; 0x26
    1aa8:	8f a0       	ldd	r8, Y+39	; 0x27
    1aaa:	98 a4       	ldd	r9, Y+40	; 0x28
    1aac:	86 19       	sub	r24, r6
    1aae:	97 09       	sbc	r25, r7
    1ab0:	a8 09       	sbc	r26, r8
    1ab2:	b9 09       	sbc	r27, r9
    1ab4:	e9 a4       	ldd	r14, Y+41	; 0x29
    1ab6:	fa a4       	ldd	r15, Y+42	; 0x2a
    1ab8:	0b a5       	ldd	r16, Y+43	; 0x2b
    1aba:	1c a5       	ldd	r17, Y+44	; 0x2c
    1abc:	ae 18       	sub	r10, r14
    1abe:	bf 08       	sbc	r11, r15
    1ac0:	c0 0a       	sbc	r12, r16
    1ac2:	d1 0a       	sbc	r13, r17
    1ac4:	ee 24       	eor	r14, r14
    1ac6:	ff 24       	eor	r15, r15
    1ac8:	87 01       	movw	r16, r14
    1aca:	28 17       	cp	r18, r24
    1acc:	39 07       	cpc	r19, r25
    1ace:	4a 07       	cpc	r20, r26
    1ad0:	5b 07       	cpc	r21, r27
    1ad2:	28 f4       	brcc	.+10     	; 0x1ade <__umoddi3+0xc0c>
    1ad4:	21 e0       	ldi	r18, 0x01	; 1
    1ad6:	e2 2e       	mov	r14, r18
    1ad8:	f1 2c       	mov	r15, r1
    1ada:	01 2d       	mov	r16, r1
    1adc:	11 2d       	mov	r17, r1
    1ade:	ae 18       	sub	r10, r14
    1ae0:	bf 08       	sbc	r11, r15
    1ae2:	c0 0a       	sbc	r12, r16
    1ae4:	d1 0a       	sbc	r13, r17
    1ae6:	02 c0       	rjmp	.+4      	; 0x1aec <__umoddi3+0xc1a>
    1ae8:	da 01       	movw	r26, r20
    1aea:	c9 01       	movw	r24, r18
    1aec:	6d 8c       	ldd	r6, Y+29	; 0x1d
    1aee:	7e 8c       	ldd	r7, Y+30	; 0x1e
    1af0:	8f 8c       	ldd	r8, Y+31	; 0x1f
    1af2:	98 a0       	ldd	r9, Y+32	; 0x20
    1af4:	68 1a       	sub	r6, r24
    1af6:	79 0a       	sbc	r7, r25
    1af8:	8a 0a       	sbc	r8, r26
    1afa:	9b 0a       	sbc	r9, r27
    1afc:	49 8d       	ldd	r20, Y+25	; 0x19
    1afe:	5a 8d       	ldd	r21, Y+26	; 0x1a
    1b00:	6b 8d       	ldd	r22, Y+27	; 0x1b
    1b02:	7c 8d       	ldd	r23, Y+28	; 0x1c
    1b04:	4a 19       	sub	r20, r10
    1b06:	5b 09       	sbc	r21, r11
    1b08:	6c 09       	sbc	r22, r12
    1b0a:	7d 09       	sbc	r23, r13
    1b0c:	5a 01       	movw	r10, r20
    1b0e:	6b 01       	movw	r12, r22
    1b10:	22 24       	eor	r2, r2
    1b12:	33 24       	eor	r3, r3
    1b14:	21 01       	movw	r4, r2
    1b16:	6d 8d       	ldd	r22, Y+29	; 0x1d
    1b18:	7e 8d       	ldd	r23, Y+30	; 0x1e
    1b1a:	8f 8d       	ldd	r24, Y+31	; 0x1f
    1b1c:	98 a1       	ldd	r25, Y+32	; 0x20
    1b1e:	66 15       	cp	r22, r6
    1b20:	77 05       	cpc	r23, r7
    1b22:	88 05       	cpc	r24, r8
    1b24:	99 05       	cpc	r25, r9
    1b26:	28 f4       	brcc	.+10     	; 0x1b32 <__umoddi3+0xc60>
    1b28:	81 e0       	ldi	r24, 0x01	; 1
    1b2a:	28 2e       	mov	r2, r24
    1b2c:	31 2c       	mov	r3, r1
    1b2e:	41 2c       	mov	r4, r1
    1b30:	51 2c       	mov	r5, r1
    1b32:	86 01       	movw	r16, r12
    1b34:	75 01       	movw	r14, r10
    1b36:	e2 18       	sub	r14, r2
    1b38:	f3 08       	sbc	r15, r3
    1b3a:	04 09       	sbc	r16, r4
    1b3c:	15 09       	sbc	r17, r5
    1b3e:	a8 01       	movw	r20, r16
    1b40:	97 01       	movw	r18, r14
    1b42:	66 96       	adiw	r28, 0x16	; 22
    1b44:	0f ac       	ldd	r0, Y+63	; 0x3f
    1b46:	66 97       	sbiw	r28, 0x16	; 22
    1b48:	04 c0       	rjmp	.+8      	; 0x1b52 <__umoddi3+0xc80>
    1b4a:	22 0f       	add	r18, r18
    1b4c:	33 1f       	adc	r19, r19
    1b4e:	44 1f       	adc	r20, r20
    1b50:	55 1f       	adc	r21, r21
    1b52:	0a 94       	dec	r0
    1b54:	d2 f7       	brpl	.-12     	; 0x1b4a <__umoddi3+0xc78>
    1b56:	d4 01       	movw	r26, r8
    1b58:	c3 01       	movw	r24, r6
    1b5a:	67 96       	adiw	r28, 0x17	; 23
    1b5c:	0f ac       	ldd	r0, Y+63	; 0x3f
    1b5e:	67 97       	sbiw	r28, 0x17	; 23
    1b60:	04 c0       	rjmp	.+8      	; 0x1b6a <__umoddi3+0xc98>
    1b62:	b6 95       	lsr	r27
    1b64:	a7 95       	ror	r26
    1b66:	97 95       	ror	r25
    1b68:	87 95       	ror	r24
    1b6a:	0a 94       	dec	r0
    1b6c:	d2 f7       	brpl	.-12     	; 0x1b62 <__umoddi3+0xc90>
    1b6e:	28 2b       	or	r18, r24
    1b70:	39 2b       	or	r19, r25
    1b72:	4a 2b       	or	r20, r26
    1b74:	5b 2b       	or	r21, r27
    1b76:	29 8b       	std	Y+17, r18	; 0x11
    1b78:	3a 8b       	std	Y+18, r19	; 0x12
    1b7a:	4b 8b       	std	Y+19, r20	; 0x13
    1b7c:	5c 8b       	std	Y+20, r21	; 0x14
    1b7e:	67 96       	adiw	r28, 0x17	; 23
    1b80:	0f ac       	ldd	r0, Y+63	; 0x3f
    1b82:	67 97       	sbiw	r28, 0x17	; 23
    1b84:	04 c0       	rjmp	.+8      	; 0x1b8e <__umoddi3+0xcbc>
    1b86:	16 95       	lsr	r17
    1b88:	07 95       	ror	r16
    1b8a:	f7 94       	ror	r15
    1b8c:	e7 94       	ror	r14
    1b8e:	0a 94       	dec	r0
    1b90:	d2 f7       	brpl	.-12     	; 0x1b86 <__umoddi3+0xcb4>
    1b92:	ed 8a       	std	Y+21, r14	; 0x15
    1b94:	fe 8a       	std	Y+22, r15	; 0x16
    1b96:	0f 8b       	std	Y+23, r16	; 0x17
    1b98:	18 8f       	std	Y+24, r17	; 0x18
    1b9a:	3a 89       	ldd	r19, Y+18	; 0x12
    1b9c:	4b 89       	ldd	r20, Y+19	; 0x13
    1b9e:	5c 89       	ldd	r21, Y+20	; 0x14
    1ba0:	6e 2d       	mov	r22, r14
    1ba2:	7e 89       	ldd	r23, Y+22	; 0x16
    1ba4:	8f 89       	ldd	r24, Y+23	; 0x17
    1ba6:	98 8d       	ldd	r25, Y+24	; 0x18
    1ba8:	c5 5a       	subi	r28, 0xA5	; 165
    1baa:	df 4f       	sbci	r29, 0xFF	; 255
    1bac:	e2 e1       	ldi	r30, 0x12	; 18
    1bae:	0c 94 62 26 	jmp	0x4cc4	; 0x4cc4 <__epilogue_restores__>

00001bb2 <_fpadd_parts>:
    1bb2:	a0 e0       	ldi	r26, 0x00	; 0
    1bb4:	b0 e0       	ldi	r27, 0x00	; 0
    1bb6:	ef ed       	ldi	r30, 0xDF	; 223
    1bb8:	fd e0       	ldi	r31, 0x0D	; 13
    1bba:	0c 94 46 26 	jmp	0x4c8c	; 0x4c8c <__prologue_saves__>
    1bbe:	dc 01       	movw	r26, r24
    1bc0:	2b 01       	movw	r4, r22
    1bc2:	fa 01       	movw	r30, r20
    1bc4:	9c 91       	ld	r25, X
    1bc6:	92 30       	cpi	r25, 0x02	; 2
    1bc8:	08 f4       	brcc	.+2      	; 0x1bcc <_fpadd_parts+0x1a>
    1bca:	39 c1       	rjmp	.+626    	; 0x1e3e <_fpadd_parts+0x28c>
    1bcc:	eb 01       	movw	r28, r22
    1bce:	88 81       	ld	r24, Y
    1bd0:	82 30       	cpi	r24, 0x02	; 2
    1bd2:	08 f4       	brcc	.+2      	; 0x1bd6 <_fpadd_parts+0x24>
    1bd4:	33 c1       	rjmp	.+614    	; 0x1e3c <_fpadd_parts+0x28a>
    1bd6:	94 30       	cpi	r25, 0x04	; 4
    1bd8:	69 f4       	brne	.+26     	; 0x1bf4 <_fpadd_parts+0x42>
    1bda:	84 30       	cpi	r24, 0x04	; 4
    1bdc:	09 f0       	breq	.+2      	; 0x1be0 <_fpadd_parts+0x2e>
    1bde:	2f c1       	rjmp	.+606    	; 0x1e3e <_fpadd_parts+0x28c>
    1be0:	11 96       	adiw	r26, 0x01	; 1
    1be2:	9c 91       	ld	r25, X
    1be4:	11 97       	sbiw	r26, 0x01	; 1
    1be6:	89 81       	ldd	r24, Y+1	; 0x01
    1be8:	98 17       	cp	r25, r24
    1bea:	09 f4       	brne	.+2      	; 0x1bee <_fpadd_parts+0x3c>
    1bec:	28 c1       	rjmp	.+592    	; 0x1e3e <_fpadd_parts+0x28c>
    1bee:	a6 e8       	ldi	r26, 0x86	; 134
    1bf0:	b1 e0       	ldi	r27, 0x01	; 1
    1bf2:	25 c1       	rjmp	.+586    	; 0x1e3e <_fpadd_parts+0x28c>
    1bf4:	84 30       	cpi	r24, 0x04	; 4
    1bf6:	09 f4       	brne	.+2      	; 0x1bfa <_fpadd_parts+0x48>
    1bf8:	21 c1       	rjmp	.+578    	; 0x1e3c <_fpadd_parts+0x28a>
    1bfa:	82 30       	cpi	r24, 0x02	; 2
    1bfc:	a9 f4       	brne	.+42     	; 0x1c28 <_fpadd_parts+0x76>
    1bfe:	92 30       	cpi	r25, 0x02	; 2
    1c00:	09 f0       	breq	.+2      	; 0x1c04 <_fpadd_parts+0x52>
    1c02:	1d c1       	rjmp	.+570    	; 0x1e3e <_fpadd_parts+0x28c>
    1c04:	9a 01       	movw	r18, r20
    1c06:	ad 01       	movw	r20, r26
    1c08:	88 e0       	ldi	r24, 0x08	; 8
    1c0a:	ea 01       	movw	r28, r20
    1c0c:	09 90       	ld	r0, Y+
    1c0e:	ae 01       	movw	r20, r28
    1c10:	e9 01       	movw	r28, r18
    1c12:	09 92       	st	Y+, r0
    1c14:	9e 01       	movw	r18, r28
    1c16:	81 50       	subi	r24, 0x01	; 1
    1c18:	c1 f7       	brne	.-16     	; 0x1c0a <_fpadd_parts+0x58>
    1c1a:	e2 01       	movw	r28, r4
    1c1c:	89 81       	ldd	r24, Y+1	; 0x01
    1c1e:	11 96       	adiw	r26, 0x01	; 1
    1c20:	9c 91       	ld	r25, X
    1c22:	89 23       	and	r24, r25
    1c24:	81 83       	std	Z+1, r24	; 0x01
    1c26:	08 c1       	rjmp	.+528    	; 0x1e38 <_fpadd_parts+0x286>
    1c28:	92 30       	cpi	r25, 0x02	; 2
    1c2a:	09 f4       	brne	.+2      	; 0x1c2e <_fpadd_parts+0x7c>
    1c2c:	07 c1       	rjmp	.+526    	; 0x1e3c <_fpadd_parts+0x28a>
    1c2e:	12 96       	adiw	r26, 0x02	; 2
    1c30:	2d 90       	ld	r2, X+
    1c32:	3c 90       	ld	r3, X
    1c34:	13 97       	sbiw	r26, 0x03	; 3
    1c36:	eb 01       	movw	r28, r22
    1c38:	8a 81       	ldd	r24, Y+2	; 0x02
    1c3a:	9b 81       	ldd	r25, Y+3	; 0x03
    1c3c:	14 96       	adiw	r26, 0x04	; 4
    1c3e:	ad 90       	ld	r10, X+
    1c40:	bd 90       	ld	r11, X+
    1c42:	cd 90       	ld	r12, X+
    1c44:	dc 90       	ld	r13, X
    1c46:	17 97       	sbiw	r26, 0x07	; 7
    1c48:	ec 80       	ldd	r14, Y+4	; 0x04
    1c4a:	fd 80       	ldd	r15, Y+5	; 0x05
    1c4c:	0e 81       	ldd	r16, Y+6	; 0x06
    1c4e:	1f 81       	ldd	r17, Y+7	; 0x07
    1c50:	91 01       	movw	r18, r2
    1c52:	28 1b       	sub	r18, r24
    1c54:	39 0b       	sbc	r19, r25
    1c56:	b9 01       	movw	r22, r18
    1c58:	37 ff       	sbrs	r19, 7
    1c5a:	04 c0       	rjmp	.+8      	; 0x1c64 <_fpadd_parts+0xb2>
    1c5c:	66 27       	eor	r22, r22
    1c5e:	77 27       	eor	r23, r23
    1c60:	62 1b       	sub	r22, r18
    1c62:	73 0b       	sbc	r23, r19
    1c64:	60 32       	cpi	r22, 0x20	; 32
    1c66:	71 05       	cpc	r23, r1
    1c68:	0c f0       	brlt	.+2      	; 0x1c6c <_fpadd_parts+0xba>
    1c6a:	61 c0       	rjmp	.+194    	; 0x1d2e <_fpadd_parts+0x17c>
    1c6c:	12 16       	cp	r1, r18
    1c6e:	13 06       	cpc	r1, r19
    1c70:	6c f5       	brge	.+90     	; 0x1ccc <_fpadd_parts+0x11a>
    1c72:	37 01       	movw	r6, r14
    1c74:	48 01       	movw	r8, r16
    1c76:	06 2e       	mov	r0, r22
    1c78:	04 c0       	rjmp	.+8      	; 0x1c82 <_fpadd_parts+0xd0>
    1c7a:	96 94       	lsr	r9
    1c7c:	87 94       	ror	r8
    1c7e:	77 94       	ror	r7
    1c80:	67 94       	ror	r6
    1c82:	0a 94       	dec	r0
    1c84:	d2 f7       	brpl	.-12     	; 0x1c7a <_fpadd_parts+0xc8>
    1c86:	21 e0       	ldi	r18, 0x01	; 1
    1c88:	30 e0       	ldi	r19, 0x00	; 0
    1c8a:	40 e0       	ldi	r20, 0x00	; 0
    1c8c:	50 e0       	ldi	r21, 0x00	; 0
    1c8e:	04 c0       	rjmp	.+8      	; 0x1c98 <_fpadd_parts+0xe6>
    1c90:	22 0f       	add	r18, r18
    1c92:	33 1f       	adc	r19, r19
    1c94:	44 1f       	adc	r20, r20
    1c96:	55 1f       	adc	r21, r21
    1c98:	6a 95       	dec	r22
    1c9a:	d2 f7       	brpl	.-12     	; 0x1c90 <_fpadd_parts+0xde>
    1c9c:	21 50       	subi	r18, 0x01	; 1
    1c9e:	30 40       	sbci	r19, 0x00	; 0
    1ca0:	40 40       	sbci	r20, 0x00	; 0
    1ca2:	50 40       	sbci	r21, 0x00	; 0
    1ca4:	2e 21       	and	r18, r14
    1ca6:	3f 21       	and	r19, r15
    1ca8:	40 23       	and	r20, r16
    1caa:	51 23       	and	r21, r17
    1cac:	21 15       	cp	r18, r1
    1cae:	31 05       	cpc	r19, r1
    1cb0:	41 05       	cpc	r20, r1
    1cb2:	51 05       	cpc	r21, r1
    1cb4:	21 f0       	breq	.+8      	; 0x1cbe <_fpadd_parts+0x10c>
    1cb6:	21 e0       	ldi	r18, 0x01	; 1
    1cb8:	30 e0       	ldi	r19, 0x00	; 0
    1cba:	40 e0       	ldi	r20, 0x00	; 0
    1cbc:	50 e0       	ldi	r21, 0x00	; 0
    1cbe:	79 01       	movw	r14, r18
    1cc0:	8a 01       	movw	r16, r20
    1cc2:	e6 28       	or	r14, r6
    1cc4:	f7 28       	or	r15, r7
    1cc6:	08 29       	or	r16, r8
    1cc8:	19 29       	or	r17, r9
    1cca:	3c c0       	rjmp	.+120    	; 0x1d44 <_fpadd_parts+0x192>
    1ccc:	23 2b       	or	r18, r19
    1cce:	d1 f1       	breq	.+116    	; 0x1d44 <_fpadd_parts+0x192>
    1cd0:	26 0e       	add	r2, r22
    1cd2:	37 1e       	adc	r3, r23
    1cd4:	35 01       	movw	r6, r10
    1cd6:	46 01       	movw	r8, r12
    1cd8:	06 2e       	mov	r0, r22
    1cda:	04 c0       	rjmp	.+8      	; 0x1ce4 <_fpadd_parts+0x132>
    1cdc:	96 94       	lsr	r9
    1cde:	87 94       	ror	r8
    1ce0:	77 94       	ror	r7
    1ce2:	67 94       	ror	r6
    1ce4:	0a 94       	dec	r0
    1ce6:	d2 f7       	brpl	.-12     	; 0x1cdc <_fpadd_parts+0x12a>
    1ce8:	21 e0       	ldi	r18, 0x01	; 1
    1cea:	30 e0       	ldi	r19, 0x00	; 0
    1cec:	40 e0       	ldi	r20, 0x00	; 0
    1cee:	50 e0       	ldi	r21, 0x00	; 0
    1cf0:	04 c0       	rjmp	.+8      	; 0x1cfa <_fpadd_parts+0x148>
    1cf2:	22 0f       	add	r18, r18
    1cf4:	33 1f       	adc	r19, r19
    1cf6:	44 1f       	adc	r20, r20
    1cf8:	55 1f       	adc	r21, r21
    1cfa:	6a 95       	dec	r22
    1cfc:	d2 f7       	brpl	.-12     	; 0x1cf2 <_fpadd_parts+0x140>
    1cfe:	21 50       	subi	r18, 0x01	; 1
    1d00:	30 40       	sbci	r19, 0x00	; 0
    1d02:	40 40       	sbci	r20, 0x00	; 0
    1d04:	50 40       	sbci	r21, 0x00	; 0
    1d06:	2a 21       	and	r18, r10
    1d08:	3b 21       	and	r19, r11
    1d0a:	4c 21       	and	r20, r12
    1d0c:	5d 21       	and	r21, r13
    1d0e:	21 15       	cp	r18, r1
    1d10:	31 05       	cpc	r19, r1
    1d12:	41 05       	cpc	r20, r1
    1d14:	51 05       	cpc	r21, r1
    1d16:	21 f0       	breq	.+8      	; 0x1d20 <_fpadd_parts+0x16e>
    1d18:	21 e0       	ldi	r18, 0x01	; 1
    1d1a:	30 e0       	ldi	r19, 0x00	; 0
    1d1c:	40 e0       	ldi	r20, 0x00	; 0
    1d1e:	50 e0       	ldi	r21, 0x00	; 0
    1d20:	59 01       	movw	r10, r18
    1d22:	6a 01       	movw	r12, r20
    1d24:	a6 28       	or	r10, r6
    1d26:	b7 28       	or	r11, r7
    1d28:	c8 28       	or	r12, r8
    1d2a:	d9 28       	or	r13, r9
    1d2c:	0b c0       	rjmp	.+22     	; 0x1d44 <_fpadd_parts+0x192>
    1d2e:	82 15       	cp	r24, r2
    1d30:	93 05       	cpc	r25, r3
    1d32:	2c f0       	brlt	.+10     	; 0x1d3e <_fpadd_parts+0x18c>
    1d34:	1c 01       	movw	r2, r24
    1d36:	aa 24       	eor	r10, r10
    1d38:	bb 24       	eor	r11, r11
    1d3a:	65 01       	movw	r12, r10
    1d3c:	03 c0       	rjmp	.+6      	; 0x1d44 <_fpadd_parts+0x192>
    1d3e:	ee 24       	eor	r14, r14
    1d40:	ff 24       	eor	r15, r15
    1d42:	87 01       	movw	r16, r14
    1d44:	11 96       	adiw	r26, 0x01	; 1
    1d46:	9c 91       	ld	r25, X
    1d48:	d2 01       	movw	r26, r4
    1d4a:	11 96       	adiw	r26, 0x01	; 1
    1d4c:	8c 91       	ld	r24, X
    1d4e:	98 17       	cp	r25, r24
    1d50:	09 f4       	brne	.+2      	; 0x1d54 <_fpadd_parts+0x1a2>
    1d52:	45 c0       	rjmp	.+138    	; 0x1dde <_fpadd_parts+0x22c>
    1d54:	99 23       	and	r25, r25
    1d56:	39 f0       	breq	.+14     	; 0x1d66 <_fpadd_parts+0x1b4>
    1d58:	a8 01       	movw	r20, r16
    1d5a:	97 01       	movw	r18, r14
    1d5c:	2a 19       	sub	r18, r10
    1d5e:	3b 09       	sbc	r19, r11
    1d60:	4c 09       	sbc	r20, r12
    1d62:	5d 09       	sbc	r21, r13
    1d64:	06 c0       	rjmp	.+12     	; 0x1d72 <_fpadd_parts+0x1c0>
    1d66:	a6 01       	movw	r20, r12
    1d68:	95 01       	movw	r18, r10
    1d6a:	2e 19       	sub	r18, r14
    1d6c:	3f 09       	sbc	r19, r15
    1d6e:	40 0b       	sbc	r20, r16
    1d70:	51 0b       	sbc	r21, r17
    1d72:	57 fd       	sbrc	r21, 7
    1d74:	08 c0       	rjmp	.+16     	; 0x1d86 <_fpadd_parts+0x1d4>
    1d76:	11 82       	std	Z+1, r1	; 0x01
    1d78:	33 82       	std	Z+3, r3	; 0x03
    1d7a:	22 82       	std	Z+2, r2	; 0x02
    1d7c:	24 83       	std	Z+4, r18	; 0x04
    1d7e:	35 83       	std	Z+5, r19	; 0x05
    1d80:	46 83       	std	Z+6, r20	; 0x06
    1d82:	57 83       	std	Z+7, r21	; 0x07
    1d84:	1d c0       	rjmp	.+58     	; 0x1dc0 <_fpadd_parts+0x20e>
    1d86:	81 e0       	ldi	r24, 0x01	; 1
    1d88:	81 83       	std	Z+1, r24	; 0x01
    1d8a:	33 82       	std	Z+3, r3	; 0x03
    1d8c:	22 82       	std	Z+2, r2	; 0x02
    1d8e:	88 27       	eor	r24, r24
    1d90:	99 27       	eor	r25, r25
    1d92:	dc 01       	movw	r26, r24
    1d94:	82 1b       	sub	r24, r18
    1d96:	93 0b       	sbc	r25, r19
    1d98:	a4 0b       	sbc	r26, r20
    1d9a:	b5 0b       	sbc	r27, r21
    1d9c:	84 83       	std	Z+4, r24	; 0x04
    1d9e:	95 83       	std	Z+5, r25	; 0x05
    1da0:	a6 83       	std	Z+6, r26	; 0x06
    1da2:	b7 83       	std	Z+7, r27	; 0x07
    1da4:	0d c0       	rjmp	.+26     	; 0x1dc0 <_fpadd_parts+0x20e>
    1da6:	22 0f       	add	r18, r18
    1da8:	33 1f       	adc	r19, r19
    1daa:	44 1f       	adc	r20, r20
    1dac:	55 1f       	adc	r21, r21
    1dae:	24 83       	std	Z+4, r18	; 0x04
    1db0:	35 83       	std	Z+5, r19	; 0x05
    1db2:	46 83       	std	Z+6, r20	; 0x06
    1db4:	57 83       	std	Z+7, r21	; 0x07
    1db6:	82 81       	ldd	r24, Z+2	; 0x02
    1db8:	93 81       	ldd	r25, Z+3	; 0x03
    1dba:	01 97       	sbiw	r24, 0x01	; 1
    1dbc:	93 83       	std	Z+3, r25	; 0x03
    1dbe:	82 83       	std	Z+2, r24	; 0x02
    1dc0:	24 81       	ldd	r18, Z+4	; 0x04
    1dc2:	35 81       	ldd	r19, Z+5	; 0x05
    1dc4:	46 81       	ldd	r20, Z+6	; 0x06
    1dc6:	57 81       	ldd	r21, Z+7	; 0x07
    1dc8:	da 01       	movw	r26, r20
    1dca:	c9 01       	movw	r24, r18
    1dcc:	01 97       	sbiw	r24, 0x01	; 1
    1dce:	a1 09       	sbc	r26, r1
    1dd0:	b1 09       	sbc	r27, r1
    1dd2:	8f 5f       	subi	r24, 0xFF	; 255
    1dd4:	9f 4f       	sbci	r25, 0xFF	; 255
    1dd6:	af 4f       	sbci	r26, 0xFF	; 255
    1dd8:	bf 43       	sbci	r27, 0x3F	; 63
    1dda:	28 f3       	brcs	.-54     	; 0x1da6 <_fpadd_parts+0x1f4>
    1ddc:	0b c0       	rjmp	.+22     	; 0x1df4 <_fpadd_parts+0x242>
    1dde:	91 83       	std	Z+1, r25	; 0x01
    1de0:	33 82       	std	Z+3, r3	; 0x03
    1de2:	22 82       	std	Z+2, r2	; 0x02
    1de4:	ea 0c       	add	r14, r10
    1de6:	fb 1c       	adc	r15, r11
    1de8:	0c 1d       	adc	r16, r12
    1dea:	1d 1d       	adc	r17, r13
    1dec:	e4 82       	std	Z+4, r14	; 0x04
    1dee:	f5 82       	std	Z+5, r15	; 0x05
    1df0:	06 83       	std	Z+6, r16	; 0x06
    1df2:	17 83       	std	Z+7, r17	; 0x07
    1df4:	83 e0       	ldi	r24, 0x03	; 3
    1df6:	80 83       	st	Z, r24
    1df8:	24 81       	ldd	r18, Z+4	; 0x04
    1dfa:	35 81       	ldd	r19, Z+5	; 0x05
    1dfc:	46 81       	ldd	r20, Z+6	; 0x06
    1dfe:	57 81       	ldd	r21, Z+7	; 0x07
    1e00:	57 ff       	sbrs	r21, 7
    1e02:	1a c0       	rjmp	.+52     	; 0x1e38 <_fpadd_parts+0x286>
    1e04:	c9 01       	movw	r24, r18
    1e06:	aa 27       	eor	r26, r26
    1e08:	97 fd       	sbrc	r25, 7
    1e0a:	a0 95       	com	r26
    1e0c:	ba 2f       	mov	r27, r26
    1e0e:	81 70       	andi	r24, 0x01	; 1
    1e10:	90 70       	andi	r25, 0x00	; 0
    1e12:	a0 70       	andi	r26, 0x00	; 0
    1e14:	b0 70       	andi	r27, 0x00	; 0
    1e16:	56 95       	lsr	r21
    1e18:	47 95       	ror	r20
    1e1a:	37 95       	ror	r19
    1e1c:	27 95       	ror	r18
    1e1e:	82 2b       	or	r24, r18
    1e20:	93 2b       	or	r25, r19
    1e22:	a4 2b       	or	r26, r20
    1e24:	b5 2b       	or	r27, r21
    1e26:	84 83       	std	Z+4, r24	; 0x04
    1e28:	95 83       	std	Z+5, r25	; 0x05
    1e2a:	a6 83       	std	Z+6, r26	; 0x06
    1e2c:	b7 83       	std	Z+7, r27	; 0x07
    1e2e:	82 81       	ldd	r24, Z+2	; 0x02
    1e30:	93 81       	ldd	r25, Z+3	; 0x03
    1e32:	01 96       	adiw	r24, 0x01	; 1
    1e34:	93 83       	std	Z+3, r25	; 0x03
    1e36:	82 83       	std	Z+2, r24	; 0x02
    1e38:	df 01       	movw	r26, r30
    1e3a:	01 c0       	rjmp	.+2      	; 0x1e3e <_fpadd_parts+0x28c>
    1e3c:	d2 01       	movw	r26, r4
    1e3e:	cd 01       	movw	r24, r26
    1e40:	cd b7       	in	r28, 0x3d	; 61
    1e42:	de b7       	in	r29, 0x3e	; 62
    1e44:	e2 e1       	ldi	r30, 0x12	; 18
    1e46:	0c 94 62 26 	jmp	0x4cc4	; 0x4cc4 <__epilogue_restores__>

00001e4a <__subsf3>:
    1e4a:	a0 e2       	ldi	r26, 0x20	; 32
    1e4c:	b0 e0       	ldi	r27, 0x00	; 0
    1e4e:	eb e2       	ldi	r30, 0x2B	; 43
    1e50:	ff e0       	ldi	r31, 0x0F	; 15
    1e52:	0c 94 52 26 	jmp	0x4ca4	; 0x4ca4 <__prologue_saves__+0x18>
    1e56:	69 83       	std	Y+1, r22	; 0x01
    1e58:	7a 83       	std	Y+2, r23	; 0x02
    1e5a:	8b 83       	std	Y+3, r24	; 0x03
    1e5c:	9c 83       	std	Y+4, r25	; 0x04
    1e5e:	2d 83       	std	Y+5, r18	; 0x05
    1e60:	3e 83       	std	Y+6, r19	; 0x06
    1e62:	4f 83       	std	Y+7, r20	; 0x07
    1e64:	58 87       	std	Y+8, r21	; 0x08
    1e66:	e9 e0       	ldi	r30, 0x09	; 9
    1e68:	ee 2e       	mov	r14, r30
    1e6a:	f1 2c       	mov	r15, r1
    1e6c:	ec 0e       	add	r14, r28
    1e6e:	fd 1e       	adc	r15, r29
    1e70:	ce 01       	movw	r24, r28
    1e72:	01 96       	adiw	r24, 0x01	; 1
    1e74:	b7 01       	movw	r22, r14
    1e76:	0e 94 d6 11 	call	0x23ac	; 0x23ac <__unpack_f>
    1e7a:	8e 01       	movw	r16, r28
    1e7c:	0f 5e       	subi	r16, 0xEF	; 239
    1e7e:	1f 4f       	sbci	r17, 0xFF	; 255
    1e80:	ce 01       	movw	r24, r28
    1e82:	05 96       	adiw	r24, 0x05	; 5
    1e84:	b8 01       	movw	r22, r16
    1e86:	0e 94 d6 11 	call	0x23ac	; 0x23ac <__unpack_f>
    1e8a:	8a 89       	ldd	r24, Y+18	; 0x12
    1e8c:	91 e0       	ldi	r25, 0x01	; 1
    1e8e:	89 27       	eor	r24, r25
    1e90:	8a 8b       	std	Y+18, r24	; 0x12
    1e92:	c7 01       	movw	r24, r14
    1e94:	b8 01       	movw	r22, r16
    1e96:	ae 01       	movw	r20, r28
    1e98:	47 5e       	subi	r20, 0xE7	; 231
    1e9a:	5f 4f       	sbci	r21, 0xFF	; 255
    1e9c:	0e 94 d9 0d 	call	0x1bb2	; 0x1bb2 <_fpadd_parts>
    1ea0:	0e 94 01 11 	call	0x2202	; 0x2202 <__pack_f>
    1ea4:	a0 96       	adiw	r28, 0x20	; 32
    1ea6:	e6 e0       	ldi	r30, 0x06	; 6
    1ea8:	0c 94 6e 26 	jmp	0x4cdc	; 0x4cdc <__epilogue_restores__+0x18>

00001eac <__addsf3>:
    1eac:	a0 e2       	ldi	r26, 0x20	; 32
    1eae:	b0 e0       	ldi	r27, 0x00	; 0
    1eb0:	ec e5       	ldi	r30, 0x5C	; 92
    1eb2:	ff e0       	ldi	r31, 0x0F	; 15
    1eb4:	0c 94 52 26 	jmp	0x4ca4	; 0x4ca4 <__prologue_saves__+0x18>
    1eb8:	69 83       	std	Y+1, r22	; 0x01
    1eba:	7a 83       	std	Y+2, r23	; 0x02
    1ebc:	8b 83       	std	Y+3, r24	; 0x03
    1ebe:	9c 83       	std	Y+4, r25	; 0x04
    1ec0:	2d 83       	std	Y+5, r18	; 0x05
    1ec2:	3e 83       	std	Y+6, r19	; 0x06
    1ec4:	4f 83       	std	Y+7, r20	; 0x07
    1ec6:	58 87       	std	Y+8, r21	; 0x08
    1ec8:	f9 e0       	ldi	r31, 0x09	; 9
    1eca:	ef 2e       	mov	r14, r31
    1ecc:	f1 2c       	mov	r15, r1
    1ece:	ec 0e       	add	r14, r28
    1ed0:	fd 1e       	adc	r15, r29
    1ed2:	ce 01       	movw	r24, r28
    1ed4:	01 96       	adiw	r24, 0x01	; 1
    1ed6:	b7 01       	movw	r22, r14
    1ed8:	0e 94 d6 11 	call	0x23ac	; 0x23ac <__unpack_f>
    1edc:	8e 01       	movw	r16, r28
    1ede:	0f 5e       	subi	r16, 0xEF	; 239
    1ee0:	1f 4f       	sbci	r17, 0xFF	; 255
    1ee2:	ce 01       	movw	r24, r28
    1ee4:	05 96       	adiw	r24, 0x05	; 5
    1ee6:	b8 01       	movw	r22, r16
    1ee8:	0e 94 d6 11 	call	0x23ac	; 0x23ac <__unpack_f>
    1eec:	c7 01       	movw	r24, r14
    1eee:	b8 01       	movw	r22, r16
    1ef0:	ae 01       	movw	r20, r28
    1ef2:	47 5e       	subi	r20, 0xE7	; 231
    1ef4:	5f 4f       	sbci	r21, 0xFF	; 255
    1ef6:	0e 94 d9 0d 	call	0x1bb2	; 0x1bb2 <_fpadd_parts>
    1efa:	0e 94 01 11 	call	0x2202	; 0x2202 <__pack_f>
    1efe:	a0 96       	adiw	r28, 0x20	; 32
    1f00:	e6 e0       	ldi	r30, 0x06	; 6
    1f02:	0c 94 6e 26 	jmp	0x4cdc	; 0x4cdc <__epilogue_restores__+0x18>

00001f06 <__mulsf3>:
    1f06:	a0 e2       	ldi	r26, 0x20	; 32
    1f08:	b0 e0       	ldi	r27, 0x00	; 0
    1f0a:	e9 e8       	ldi	r30, 0x89	; 137
    1f0c:	ff e0       	ldi	r31, 0x0F	; 15
    1f0e:	0c 94 46 26 	jmp	0x4c8c	; 0x4c8c <__prologue_saves__>
    1f12:	69 83       	std	Y+1, r22	; 0x01
    1f14:	7a 83       	std	Y+2, r23	; 0x02
    1f16:	8b 83       	std	Y+3, r24	; 0x03
    1f18:	9c 83       	std	Y+4, r25	; 0x04
    1f1a:	2d 83       	std	Y+5, r18	; 0x05
    1f1c:	3e 83       	std	Y+6, r19	; 0x06
    1f1e:	4f 83       	std	Y+7, r20	; 0x07
    1f20:	58 87       	std	Y+8, r21	; 0x08
    1f22:	ce 01       	movw	r24, r28
    1f24:	01 96       	adiw	r24, 0x01	; 1
    1f26:	be 01       	movw	r22, r28
    1f28:	67 5f       	subi	r22, 0xF7	; 247
    1f2a:	7f 4f       	sbci	r23, 0xFF	; 255
    1f2c:	0e 94 d6 11 	call	0x23ac	; 0x23ac <__unpack_f>
    1f30:	ce 01       	movw	r24, r28
    1f32:	05 96       	adiw	r24, 0x05	; 5
    1f34:	be 01       	movw	r22, r28
    1f36:	6f 5e       	subi	r22, 0xEF	; 239
    1f38:	7f 4f       	sbci	r23, 0xFF	; 255
    1f3a:	0e 94 d6 11 	call	0x23ac	; 0x23ac <__unpack_f>
    1f3e:	99 85       	ldd	r25, Y+9	; 0x09
    1f40:	92 30       	cpi	r25, 0x02	; 2
    1f42:	88 f0       	brcs	.+34     	; 0x1f66 <__mulsf3+0x60>
    1f44:	89 89       	ldd	r24, Y+17	; 0x11
    1f46:	82 30       	cpi	r24, 0x02	; 2
    1f48:	c8 f0       	brcs	.+50     	; 0x1f7c <__mulsf3+0x76>
    1f4a:	94 30       	cpi	r25, 0x04	; 4
    1f4c:	19 f4       	brne	.+6      	; 0x1f54 <__mulsf3+0x4e>
    1f4e:	82 30       	cpi	r24, 0x02	; 2
    1f50:	51 f4       	brne	.+20     	; 0x1f66 <__mulsf3+0x60>
    1f52:	04 c0       	rjmp	.+8      	; 0x1f5c <__mulsf3+0x56>
    1f54:	84 30       	cpi	r24, 0x04	; 4
    1f56:	29 f4       	brne	.+10     	; 0x1f62 <__mulsf3+0x5c>
    1f58:	92 30       	cpi	r25, 0x02	; 2
    1f5a:	81 f4       	brne	.+32     	; 0x1f7c <__mulsf3+0x76>
    1f5c:	86 e8       	ldi	r24, 0x86	; 134
    1f5e:	91 e0       	ldi	r25, 0x01	; 1
    1f60:	c6 c0       	rjmp	.+396    	; 0x20ee <__mulsf3+0x1e8>
    1f62:	92 30       	cpi	r25, 0x02	; 2
    1f64:	49 f4       	brne	.+18     	; 0x1f78 <__mulsf3+0x72>
    1f66:	20 e0       	ldi	r18, 0x00	; 0
    1f68:	9a 85       	ldd	r25, Y+10	; 0x0a
    1f6a:	8a 89       	ldd	r24, Y+18	; 0x12
    1f6c:	98 13       	cpse	r25, r24
    1f6e:	21 e0       	ldi	r18, 0x01	; 1
    1f70:	2a 87       	std	Y+10, r18	; 0x0a
    1f72:	ce 01       	movw	r24, r28
    1f74:	09 96       	adiw	r24, 0x09	; 9
    1f76:	bb c0       	rjmp	.+374    	; 0x20ee <__mulsf3+0x1e8>
    1f78:	82 30       	cpi	r24, 0x02	; 2
    1f7a:	49 f4       	brne	.+18     	; 0x1f8e <__mulsf3+0x88>
    1f7c:	20 e0       	ldi	r18, 0x00	; 0
    1f7e:	9a 85       	ldd	r25, Y+10	; 0x0a
    1f80:	8a 89       	ldd	r24, Y+18	; 0x12
    1f82:	98 13       	cpse	r25, r24
    1f84:	21 e0       	ldi	r18, 0x01	; 1
    1f86:	2a 8b       	std	Y+18, r18	; 0x12
    1f88:	ce 01       	movw	r24, r28
    1f8a:	41 96       	adiw	r24, 0x11	; 17
    1f8c:	b0 c0       	rjmp	.+352    	; 0x20ee <__mulsf3+0x1e8>
    1f8e:	2d 84       	ldd	r2, Y+13	; 0x0d
    1f90:	3e 84       	ldd	r3, Y+14	; 0x0e
    1f92:	4f 84       	ldd	r4, Y+15	; 0x0f
    1f94:	58 88       	ldd	r5, Y+16	; 0x10
    1f96:	6d 88       	ldd	r6, Y+21	; 0x15
    1f98:	7e 88       	ldd	r7, Y+22	; 0x16
    1f9a:	8f 88       	ldd	r8, Y+23	; 0x17
    1f9c:	98 8c       	ldd	r9, Y+24	; 0x18
    1f9e:	ee 24       	eor	r14, r14
    1fa0:	ff 24       	eor	r15, r15
    1fa2:	87 01       	movw	r16, r14
    1fa4:	aa 24       	eor	r10, r10
    1fa6:	bb 24       	eor	r11, r11
    1fa8:	65 01       	movw	r12, r10
    1faa:	40 e0       	ldi	r20, 0x00	; 0
    1fac:	50 e0       	ldi	r21, 0x00	; 0
    1fae:	60 e0       	ldi	r22, 0x00	; 0
    1fb0:	70 e0       	ldi	r23, 0x00	; 0
    1fb2:	e0 e0       	ldi	r30, 0x00	; 0
    1fb4:	f0 e0       	ldi	r31, 0x00	; 0
    1fb6:	c1 01       	movw	r24, r2
    1fb8:	81 70       	andi	r24, 0x01	; 1
    1fba:	90 70       	andi	r25, 0x00	; 0
    1fbc:	89 2b       	or	r24, r25
    1fbe:	e9 f0       	breq	.+58     	; 0x1ffa <__mulsf3+0xf4>
    1fc0:	e6 0c       	add	r14, r6
    1fc2:	f7 1c       	adc	r15, r7
    1fc4:	08 1d       	adc	r16, r8
    1fc6:	19 1d       	adc	r17, r9
    1fc8:	9a 01       	movw	r18, r20
    1fca:	ab 01       	movw	r20, r22
    1fcc:	2a 0d       	add	r18, r10
    1fce:	3b 1d       	adc	r19, r11
    1fd0:	4c 1d       	adc	r20, r12
    1fd2:	5d 1d       	adc	r21, r13
    1fd4:	80 e0       	ldi	r24, 0x00	; 0
    1fd6:	90 e0       	ldi	r25, 0x00	; 0
    1fd8:	a0 e0       	ldi	r26, 0x00	; 0
    1fda:	b0 e0       	ldi	r27, 0x00	; 0
    1fdc:	e6 14       	cp	r14, r6
    1fde:	f7 04       	cpc	r15, r7
    1fe0:	08 05       	cpc	r16, r8
    1fe2:	19 05       	cpc	r17, r9
    1fe4:	20 f4       	brcc	.+8      	; 0x1fee <__mulsf3+0xe8>
    1fe6:	81 e0       	ldi	r24, 0x01	; 1
    1fe8:	90 e0       	ldi	r25, 0x00	; 0
    1fea:	a0 e0       	ldi	r26, 0x00	; 0
    1fec:	b0 e0       	ldi	r27, 0x00	; 0
    1fee:	ba 01       	movw	r22, r20
    1ff0:	a9 01       	movw	r20, r18
    1ff2:	48 0f       	add	r20, r24
    1ff4:	59 1f       	adc	r21, r25
    1ff6:	6a 1f       	adc	r22, r26
    1ff8:	7b 1f       	adc	r23, r27
    1ffa:	aa 0c       	add	r10, r10
    1ffc:	bb 1c       	adc	r11, r11
    1ffe:	cc 1c       	adc	r12, r12
    2000:	dd 1c       	adc	r13, r13
    2002:	97 fe       	sbrs	r9, 7
    2004:	08 c0       	rjmp	.+16     	; 0x2016 <__mulsf3+0x110>
    2006:	81 e0       	ldi	r24, 0x01	; 1
    2008:	90 e0       	ldi	r25, 0x00	; 0
    200a:	a0 e0       	ldi	r26, 0x00	; 0
    200c:	b0 e0       	ldi	r27, 0x00	; 0
    200e:	a8 2a       	or	r10, r24
    2010:	b9 2a       	or	r11, r25
    2012:	ca 2a       	or	r12, r26
    2014:	db 2a       	or	r13, r27
    2016:	31 96       	adiw	r30, 0x01	; 1
    2018:	e0 32       	cpi	r30, 0x20	; 32
    201a:	f1 05       	cpc	r31, r1
    201c:	49 f0       	breq	.+18     	; 0x2030 <__mulsf3+0x12a>
    201e:	66 0c       	add	r6, r6
    2020:	77 1c       	adc	r7, r7
    2022:	88 1c       	adc	r8, r8
    2024:	99 1c       	adc	r9, r9
    2026:	56 94       	lsr	r5
    2028:	47 94       	ror	r4
    202a:	37 94       	ror	r3
    202c:	27 94       	ror	r2
    202e:	c3 cf       	rjmp	.-122    	; 0x1fb6 <__mulsf3+0xb0>
    2030:	fa 85       	ldd	r31, Y+10	; 0x0a
    2032:	ea 89       	ldd	r30, Y+18	; 0x12
    2034:	2b 89       	ldd	r18, Y+19	; 0x13
    2036:	3c 89       	ldd	r19, Y+20	; 0x14
    2038:	8b 85       	ldd	r24, Y+11	; 0x0b
    203a:	9c 85       	ldd	r25, Y+12	; 0x0c
    203c:	28 0f       	add	r18, r24
    203e:	39 1f       	adc	r19, r25
    2040:	2e 5f       	subi	r18, 0xFE	; 254
    2042:	3f 4f       	sbci	r19, 0xFF	; 255
    2044:	17 c0       	rjmp	.+46     	; 0x2074 <__mulsf3+0x16e>
    2046:	ca 01       	movw	r24, r20
    2048:	81 70       	andi	r24, 0x01	; 1
    204a:	90 70       	andi	r25, 0x00	; 0
    204c:	89 2b       	or	r24, r25
    204e:	61 f0       	breq	.+24     	; 0x2068 <__mulsf3+0x162>
    2050:	16 95       	lsr	r17
    2052:	07 95       	ror	r16
    2054:	f7 94       	ror	r15
    2056:	e7 94       	ror	r14
    2058:	80 e0       	ldi	r24, 0x00	; 0
    205a:	90 e0       	ldi	r25, 0x00	; 0
    205c:	a0 e0       	ldi	r26, 0x00	; 0
    205e:	b0 e8       	ldi	r27, 0x80	; 128
    2060:	e8 2a       	or	r14, r24
    2062:	f9 2a       	or	r15, r25
    2064:	0a 2b       	or	r16, r26
    2066:	1b 2b       	or	r17, r27
    2068:	76 95       	lsr	r23
    206a:	67 95       	ror	r22
    206c:	57 95       	ror	r21
    206e:	47 95       	ror	r20
    2070:	2f 5f       	subi	r18, 0xFF	; 255
    2072:	3f 4f       	sbci	r19, 0xFF	; 255
    2074:	77 fd       	sbrc	r23, 7
    2076:	e7 cf       	rjmp	.-50     	; 0x2046 <__mulsf3+0x140>
    2078:	0c c0       	rjmp	.+24     	; 0x2092 <__mulsf3+0x18c>
    207a:	44 0f       	add	r20, r20
    207c:	55 1f       	adc	r21, r21
    207e:	66 1f       	adc	r22, r22
    2080:	77 1f       	adc	r23, r23
    2082:	17 fd       	sbrc	r17, 7
    2084:	41 60       	ori	r20, 0x01	; 1
    2086:	ee 0c       	add	r14, r14
    2088:	ff 1c       	adc	r15, r15
    208a:	00 1f       	adc	r16, r16
    208c:	11 1f       	adc	r17, r17
    208e:	21 50       	subi	r18, 0x01	; 1
    2090:	30 40       	sbci	r19, 0x00	; 0
    2092:	40 30       	cpi	r20, 0x00	; 0
    2094:	90 e0       	ldi	r25, 0x00	; 0
    2096:	59 07       	cpc	r21, r25
    2098:	90 e0       	ldi	r25, 0x00	; 0
    209a:	69 07       	cpc	r22, r25
    209c:	90 e4       	ldi	r25, 0x40	; 64
    209e:	79 07       	cpc	r23, r25
    20a0:	60 f3       	brcs	.-40     	; 0x207a <__mulsf3+0x174>
    20a2:	2b 8f       	std	Y+27, r18	; 0x1b
    20a4:	3c 8f       	std	Y+28, r19	; 0x1c
    20a6:	db 01       	movw	r26, r22
    20a8:	ca 01       	movw	r24, r20
    20aa:	8f 77       	andi	r24, 0x7F	; 127
    20ac:	90 70       	andi	r25, 0x00	; 0
    20ae:	a0 70       	andi	r26, 0x00	; 0
    20b0:	b0 70       	andi	r27, 0x00	; 0
    20b2:	80 34       	cpi	r24, 0x40	; 64
    20b4:	91 05       	cpc	r25, r1
    20b6:	a1 05       	cpc	r26, r1
    20b8:	b1 05       	cpc	r27, r1
    20ba:	61 f4       	brne	.+24     	; 0x20d4 <__mulsf3+0x1ce>
    20bc:	47 fd       	sbrc	r20, 7
    20be:	0a c0       	rjmp	.+20     	; 0x20d4 <__mulsf3+0x1ce>
    20c0:	e1 14       	cp	r14, r1
    20c2:	f1 04       	cpc	r15, r1
    20c4:	01 05       	cpc	r16, r1
    20c6:	11 05       	cpc	r17, r1
    20c8:	29 f0       	breq	.+10     	; 0x20d4 <__mulsf3+0x1ce>
    20ca:	40 5c       	subi	r20, 0xC0	; 192
    20cc:	5f 4f       	sbci	r21, 0xFF	; 255
    20ce:	6f 4f       	sbci	r22, 0xFF	; 255
    20d0:	7f 4f       	sbci	r23, 0xFF	; 255
    20d2:	40 78       	andi	r20, 0x80	; 128
    20d4:	1a 8e       	std	Y+26, r1	; 0x1a
    20d6:	fe 17       	cp	r31, r30
    20d8:	11 f0       	breq	.+4      	; 0x20de <__mulsf3+0x1d8>
    20da:	81 e0       	ldi	r24, 0x01	; 1
    20dc:	8a 8f       	std	Y+26, r24	; 0x1a
    20de:	4d 8f       	std	Y+29, r20	; 0x1d
    20e0:	5e 8f       	std	Y+30, r21	; 0x1e
    20e2:	6f 8f       	std	Y+31, r22	; 0x1f
    20e4:	78 a3       	std	Y+32, r23	; 0x20
    20e6:	83 e0       	ldi	r24, 0x03	; 3
    20e8:	89 8f       	std	Y+25, r24	; 0x19
    20ea:	ce 01       	movw	r24, r28
    20ec:	49 96       	adiw	r24, 0x19	; 25
    20ee:	0e 94 01 11 	call	0x2202	; 0x2202 <__pack_f>
    20f2:	a0 96       	adiw	r28, 0x20	; 32
    20f4:	e2 e1       	ldi	r30, 0x12	; 18
    20f6:	0c 94 62 26 	jmp	0x4cc4	; 0x4cc4 <__epilogue_restores__>

000020fa <__gesf2>:
    20fa:	a8 e1       	ldi	r26, 0x18	; 24
    20fc:	b0 e0       	ldi	r27, 0x00	; 0
    20fe:	e3 e8       	ldi	r30, 0x83	; 131
    2100:	f0 e1       	ldi	r31, 0x10	; 16
    2102:	0c 94 52 26 	jmp	0x4ca4	; 0x4ca4 <__prologue_saves__+0x18>
    2106:	69 83       	std	Y+1, r22	; 0x01
    2108:	7a 83       	std	Y+2, r23	; 0x02
    210a:	8b 83       	std	Y+3, r24	; 0x03
    210c:	9c 83       	std	Y+4, r25	; 0x04
    210e:	2d 83       	std	Y+5, r18	; 0x05
    2110:	3e 83       	std	Y+6, r19	; 0x06
    2112:	4f 83       	std	Y+7, r20	; 0x07
    2114:	58 87       	std	Y+8, r21	; 0x08
    2116:	89 e0       	ldi	r24, 0x09	; 9
    2118:	e8 2e       	mov	r14, r24
    211a:	f1 2c       	mov	r15, r1
    211c:	ec 0e       	add	r14, r28
    211e:	fd 1e       	adc	r15, r29
    2120:	ce 01       	movw	r24, r28
    2122:	01 96       	adiw	r24, 0x01	; 1
    2124:	b7 01       	movw	r22, r14
    2126:	0e 94 d6 11 	call	0x23ac	; 0x23ac <__unpack_f>
    212a:	8e 01       	movw	r16, r28
    212c:	0f 5e       	subi	r16, 0xEF	; 239
    212e:	1f 4f       	sbci	r17, 0xFF	; 255
    2130:	ce 01       	movw	r24, r28
    2132:	05 96       	adiw	r24, 0x05	; 5
    2134:	b8 01       	movw	r22, r16
    2136:	0e 94 d6 11 	call	0x23ac	; 0x23ac <__unpack_f>
    213a:	89 85       	ldd	r24, Y+9	; 0x09
    213c:	82 30       	cpi	r24, 0x02	; 2
    213e:	40 f0       	brcs	.+16     	; 0x2150 <__gesf2+0x56>
    2140:	89 89       	ldd	r24, Y+17	; 0x11
    2142:	82 30       	cpi	r24, 0x02	; 2
    2144:	28 f0       	brcs	.+10     	; 0x2150 <__gesf2+0x56>
    2146:	c7 01       	movw	r24, r14
    2148:	b8 01       	movw	r22, r16
    214a:	0e 94 4e 12 	call	0x249c	; 0x249c <__fpcmp_parts_f>
    214e:	01 c0       	rjmp	.+2      	; 0x2152 <__gesf2+0x58>
    2150:	8f ef       	ldi	r24, 0xFF	; 255
    2152:	68 96       	adiw	r28, 0x18	; 24
    2154:	e6 e0       	ldi	r30, 0x06	; 6
    2156:	0c 94 6e 26 	jmp	0x4cdc	; 0x4cdc <__epilogue_restores__+0x18>

0000215a <__fixsfsi>:
    215a:	ac e0       	ldi	r26, 0x0C	; 12
    215c:	b0 e0       	ldi	r27, 0x00	; 0
    215e:	e3 eb       	ldi	r30, 0xB3	; 179
    2160:	f0 e1       	ldi	r31, 0x10	; 16
    2162:	0c 94 56 26 	jmp	0x4cac	; 0x4cac <__prologue_saves__+0x20>
    2166:	69 83       	std	Y+1, r22	; 0x01
    2168:	7a 83       	std	Y+2, r23	; 0x02
    216a:	8b 83       	std	Y+3, r24	; 0x03
    216c:	9c 83       	std	Y+4, r25	; 0x04
    216e:	ce 01       	movw	r24, r28
    2170:	01 96       	adiw	r24, 0x01	; 1
    2172:	be 01       	movw	r22, r28
    2174:	6b 5f       	subi	r22, 0xFB	; 251
    2176:	7f 4f       	sbci	r23, 0xFF	; 255
    2178:	0e 94 d6 11 	call	0x23ac	; 0x23ac <__unpack_f>
    217c:	8d 81       	ldd	r24, Y+5	; 0x05
    217e:	82 30       	cpi	r24, 0x02	; 2
    2180:	61 f1       	breq	.+88     	; 0x21da <__fixsfsi+0x80>
    2182:	82 30       	cpi	r24, 0x02	; 2
    2184:	50 f1       	brcs	.+84     	; 0x21da <__fixsfsi+0x80>
    2186:	84 30       	cpi	r24, 0x04	; 4
    2188:	21 f4       	brne	.+8      	; 0x2192 <__fixsfsi+0x38>
    218a:	8e 81       	ldd	r24, Y+6	; 0x06
    218c:	88 23       	and	r24, r24
    218e:	51 f1       	breq	.+84     	; 0x21e4 <__fixsfsi+0x8a>
    2190:	2e c0       	rjmp	.+92     	; 0x21ee <__fixsfsi+0x94>
    2192:	2f 81       	ldd	r18, Y+7	; 0x07
    2194:	38 85       	ldd	r19, Y+8	; 0x08
    2196:	37 fd       	sbrc	r19, 7
    2198:	20 c0       	rjmp	.+64     	; 0x21da <__fixsfsi+0x80>
    219a:	6e 81       	ldd	r22, Y+6	; 0x06
    219c:	2f 31       	cpi	r18, 0x1F	; 31
    219e:	31 05       	cpc	r19, r1
    21a0:	1c f0       	brlt	.+6      	; 0x21a8 <__fixsfsi+0x4e>
    21a2:	66 23       	and	r22, r22
    21a4:	f9 f0       	breq	.+62     	; 0x21e4 <__fixsfsi+0x8a>
    21a6:	23 c0       	rjmp	.+70     	; 0x21ee <__fixsfsi+0x94>
    21a8:	8e e1       	ldi	r24, 0x1E	; 30
    21aa:	90 e0       	ldi	r25, 0x00	; 0
    21ac:	82 1b       	sub	r24, r18
    21ae:	93 0b       	sbc	r25, r19
    21b0:	29 85       	ldd	r18, Y+9	; 0x09
    21b2:	3a 85       	ldd	r19, Y+10	; 0x0a
    21b4:	4b 85       	ldd	r20, Y+11	; 0x0b
    21b6:	5c 85       	ldd	r21, Y+12	; 0x0c
    21b8:	04 c0       	rjmp	.+8      	; 0x21c2 <__fixsfsi+0x68>
    21ba:	56 95       	lsr	r21
    21bc:	47 95       	ror	r20
    21be:	37 95       	ror	r19
    21c0:	27 95       	ror	r18
    21c2:	8a 95       	dec	r24
    21c4:	d2 f7       	brpl	.-12     	; 0x21ba <__fixsfsi+0x60>
    21c6:	66 23       	and	r22, r22
    21c8:	b1 f0       	breq	.+44     	; 0x21f6 <__fixsfsi+0x9c>
    21ca:	50 95       	com	r21
    21cc:	40 95       	com	r20
    21ce:	30 95       	com	r19
    21d0:	21 95       	neg	r18
    21d2:	3f 4f       	sbci	r19, 0xFF	; 255
    21d4:	4f 4f       	sbci	r20, 0xFF	; 255
    21d6:	5f 4f       	sbci	r21, 0xFF	; 255
    21d8:	0e c0       	rjmp	.+28     	; 0x21f6 <__fixsfsi+0x9c>
    21da:	20 e0       	ldi	r18, 0x00	; 0
    21dc:	30 e0       	ldi	r19, 0x00	; 0
    21de:	40 e0       	ldi	r20, 0x00	; 0
    21e0:	50 e0       	ldi	r21, 0x00	; 0
    21e2:	09 c0       	rjmp	.+18     	; 0x21f6 <__fixsfsi+0x9c>
    21e4:	2f ef       	ldi	r18, 0xFF	; 255
    21e6:	3f ef       	ldi	r19, 0xFF	; 255
    21e8:	4f ef       	ldi	r20, 0xFF	; 255
    21ea:	5f e7       	ldi	r21, 0x7F	; 127
    21ec:	04 c0       	rjmp	.+8      	; 0x21f6 <__fixsfsi+0x9c>
    21ee:	20 e0       	ldi	r18, 0x00	; 0
    21f0:	30 e0       	ldi	r19, 0x00	; 0
    21f2:	40 e0       	ldi	r20, 0x00	; 0
    21f4:	50 e8       	ldi	r21, 0x80	; 128
    21f6:	b9 01       	movw	r22, r18
    21f8:	ca 01       	movw	r24, r20
    21fa:	2c 96       	adiw	r28, 0x0c	; 12
    21fc:	e2 e0       	ldi	r30, 0x02	; 2
    21fe:	0c 94 72 26 	jmp	0x4ce4	; 0x4ce4 <__epilogue_restores__+0x20>

00002202 <__pack_f>:
    2202:	df 92       	push	r13
    2204:	ef 92       	push	r14
    2206:	ff 92       	push	r15
    2208:	0f 93       	push	r16
    220a:	1f 93       	push	r17
    220c:	fc 01       	movw	r30, r24
    220e:	e4 80       	ldd	r14, Z+4	; 0x04
    2210:	f5 80       	ldd	r15, Z+5	; 0x05
    2212:	06 81       	ldd	r16, Z+6	; 0x06
    2214:	17 81       	ldd	r17, Z+7	; 0x07
    2216:	d1 80       	ldd	r13, Z+1	; 0x01
    2218:	80 81       	ld	r24, Z
    221a:	82 30       	cpi	r24, 0x02	; 2
    221c:	48 f4       	brcc	.+18     	; 0x2230 <__pack_f+0x2e>
    221e:	80 e0       	ldi	r24, 0x00	; 0
    2220:	90 e0       	ldi	r25, 0x00	; 0
    2222:	a0 e1       	ldi	r26, 0x10	; 16
    2224:	b0 e0       	ldi	r27, 0x00	; 0
    2226:	e8 2a       	or	r14, r24
    2228:	f9 2a       	or	r15, r25
    222a:	0a 2b       	or	r16, r26
    222c:	1b 2b       	or	r17, r27
    222e:	a5 c0       	rjmp	.+330    	; 0x237a <__pack_f+0x178>
    2230:	84 30       	cpi	r24, 0x04	; 4
    2232:	09 f4       	brne	.+2      	; 0x2236 <__pack_f+0x34>
    2234:	9f c0       	rjmp	.+318    	; 0x2374 <__pack_f+0x172>
    2236:	82 30       	cpi	r24, 0x02	; 2
    2238:	21 f4       	brne	.+8      	; 0x2242 <__pack_f+0x40>
    223a:	ee 24       	eor	r14, r14
    223c:	ff 24       	eor	r15, r15
    223e:	87 01       	movw	r16, r14
    2240:	05 c0       	rjmp	.+10     	; 0x224c <__pack_f+0x4a>
    2242:	e1 14       	cp	r14, r1
    2244:	f1 04       	cpc	r15, r1
    2246:	01 05       	cpc	r16, r1
    2248:	11 05       	cpc	r17, r1
    224a:	19 f4       	brne	.+6      	; 0x2252 <__pack_f+0x50>
    224c:	e0 e0       	ldi	r30, 0x00	; 0
    224e:	f0 e0       	ldi	r31, 0x00	; 0
    2250:	96 c0       	rjmp	.+300    	; 0x237e <__pack_f+0x17c>
    2252:	62 81       	ldd	r22, Z+2	; 0x02
    2254:	73 81       	ldd	r23, Z+3	; 0x03
    2256:	9f ef       	ldi	r25, 0xFF	; 255
    2258:	62 38       	cpi	r22, 0x82	; 130
    225a:	79 07       	cpc	r23, r25
    225c:	0c f0       	brlt	.+2      	; 0x2260 <__pack_f+0x5e>
    225e:	5b c0       	rjmp	.+182    	; 0x2316 <__pack_f+0x114>
    2260:	22 e8       	ldi	r18, 0x82	; 130
    2262:	3f ef       	ldi	r19, 0xFF	; 255
    2264:	26 1b       	sub	r18, r22
    2266:	37 0b       	sbc	r19, r23
    2268:	2a 31       	cpi	r18, 0x1A	; 26
    226a:	31 05       	cpc	r19, r1
    226c:	2c f0       	brlt	.+10     	; 0x2278 <__pack_f+0x76>
    226e:	20 e0       	ldi	r18, 0x00	; 0
    2270:	30 e0       	ldi	r19, 0x00	; 0
    2272:	40 e0       	ldi	r20, 0x00	; 0
    2274:	50 e0       	ldi	r21, 0x00	; 0
    2276:	2a c0       	rjmp	.+84     	; 0x22cc <__pack_f+0xca>
    2278:	b8 01       	movw	r22, r16
    227a:	a7 01       	movw	r20, r14
    227c:	02 2e       	mov	r0, r18
    227e:	04 c0       	rjmp	.+8      	; 0x2288 <__pack_f+0x86>
    2280:	76 95       	lsr	r23
    2282:	67 95       	ror	r22
    2284:	57 95       	ror	r21
    2286:	47 95       	ror	r20
    2288:	0a 94       	dec	r0
    228a:	d2 f7       	brpl	.-12     	; 0x2280 <__pack_f+0x7e>
    228c:	81 e0       	ldi	r24, 0x01	; 1
    228e:	90 e0       	ldi	r25, 0x00	; 0
    2290:	a0 e0       	ldi	r26, 0x00	; 0
    2292:	b0 e0       	ldi	r27, 0x00	; 0
    2294:	04 c0       	rjmp	.+8      	; 0x229e <__pack_f+0x9c>
    2296:	88 0f       	add	r24, r24
    2298:	99 1f       	adc	r25, r25
    229a:	aa 1f       	adc	r26, r26
    229c:	bb 1f       	adc	r27, r27
    229e:	2a 95       	dec	r18
    22a0:	d2 f7       	brpl	.-12     	; 0x2296 <__pack_f+0x94>
    22a2:	01 97       	sbiw	r24, 0x01	; 1
    22a4:	a1 09       	sbc	r26, r1
    22a6:	b1 09       	sbc	r27, r1
    22a8:	8e 21       	and	r24, r14
    22aa:	9f 21       	and	r25, r15
    22ac:	a0 23       	and	r26, r16
    22ae:	b1 23       	and	r27, r17
    22b0:	00 97       	sbiw	r24, 0x00	; 0
    22b2:	a1 05       	cpc	r26, r1
    22b4:	b1 05       	cpc	r27, r1
    22b6:	21 f0       	breq	.+8      	; 0x22c0 <__pack_f+0xbe>
    22b8:	81 e0       	ldi	r24, 0x01	; 1
    22ba:	90 e0       	ldi	r25, 0x00	; 0
    22bc:	a0 e0       	ldi	r26, 0x00	; 0
    22be:	b0 e0       	ldi	r27, 0x00	; 0
    22c0:	9a 01       	movw	r18, r20
    22c2:	ab 01       	movw	r20, r22
    22c4:	28 2b       	or	r18, r24
    22c6:	39 2b       	or	r19, r25
    22c8:	4a 2b       	or	r20, r26
    22ca:	5b 2b       	or	r21, r27
    22cc:	da 01       	movw	r26, r20
    22ce:	c9 01       	movw	r24, r18
    22d0:	8f 77       	andi	r24, 0x7F	; 127
    22d2:	90 70       	andi	r25, 0x00	; 0
    22d4:	a0 70       	andi	r26, 0x00	; 0
    22d6:	b0 70       	andi	r27, 0x00	; 0
    22d8:	80 34       	cpi	r24, 0x40	; 64
    22da:	91 05       	cpc	r25, r1
    22dc:	a1 05       	cpc	r26, r1
    22de:	b1 05       	cpc	r27, r1
    22e0:	39 f4       	brne	.+14     	; 0x22f0 <__pack_f+0xee>
    22e2:	27 ff       	sbrs	r18, 7
    22e4:	09 c0       	rjmp	.+18     	; 0x22f8 <__pack_f+0xf6>
    22e6:	20 5c       	subi	r18, 0xC0	; 192
    22e8:	3f 4f       	sbci	r19, 0xFF	; 255
    22ea:	4f 4f       	sbci	r20, 0xFF	; 255
    22ec:	5f 4f       	sbci	r21, 0xFF	; 255
    22ee:	04 c0       	rjmp	.+8      	; 0x22f8 <__pack_f+0xf6>
    22f0:	21 5c       	subi	r18, 0xC1	; 193
    22f2:	3f 4f       	sbci	r19, 0xFF	; 255
    22f4:	4f 4f       	sbci	r20, 0xFF	; 255
    22f6:	5f 4f       	sbci	r21, 0xFF	; 255
    22f8:	e0 e0       	ldi	r30, 0x00	; 0
    22fa:	f0 e0       	ldi	r31, 0x00	; 0
    22fc:	20 30       	cpi	r18, 0x00	; 0
    22fe:	a0 e0       	ldi	r26, 0x00	; 0
    2300:	3a 07       	cpc	r19, r26
    2302:	a0 e0       	ldi	r26, 0x00	; 0
    2304:	4a 07       	cpc	r20, r26
    2306:	a0 e4       	ldi	r26, 0x40	; 64
    2308:	5a 07       	cpc	r21, r26
    230a:	10 f0       	brcs	.+4      	; 0x2310 <__pack_f+0x10e>
    230c:	e1 e0       	ldi	r30, 0x01	; 1
    230e:	f0 e0       	ldi	r31, 0x00	; 0
    2310:	79 01       	movw	r14, r18
    2312:	8a 01       	movw	r16, r20
    2314:	27 c0       	rjmp	.+78     	; 0x2364 <__pack_f+0x162>
    2316:	60 38       	cpi	r22, 0x80	; 128
    2318:	71 05       	cpc	r23, r1
    231a:	64 f5       	brge	.+88     	; 0x2374 <__pack_f+0x172>
    231c:	fb 01       	movw	r30, r22
    231e:	e1 58       	subi	r30, 0x81	; 129
    2320:	ff 4f       	sbci	r31, 0xFF	; 255
    2322:	d8 01       	movw	r26, r16
    2324:	c7 01       	movw	r24, r14
    2326:	8f 77       	andi	r24, 0x7F	; 127
    2328:	90 70       	andi	r25, 0x00	; 0
    232a:	a0 70       	andi	r26, 0x00	; 0
    232c:	b0 70       	andi	r27, 0x00	; 0
    232e:	80 34       	cpi	r24, 0x40	; 64
    2330:	91 05       	cpc	r25, r1
    2332:	a1 05       	cpc	r26, r1
    2334:	b1 05       	cpc	r27, r1
    2336:	39 f4       	brne	.+14     	; 0x2346 <__pack_f+0x144>
    2338:	e7 fe       	sbrs	r14, 7
    233a:	0d c0       	rjmp	.+26     	; 0x2356 <__pack_f+0x154>
    233c:	80 e4       	ldi	r24, 0x40	; 64
    233e:	90 e0       	ldi	r25, 0x00	; 0
    2340:	a0 e0       	ldi	r26, 0x00	; 0
    2342:	b0 e0       	ldi	r27, 0x00	; 0
    2344:	04 c0       	rjmp	.+8      	; 0x234e <__pack_f+0x14c>
    2346:	8f e3       	ldi	r24, 0x3F	; 63
    2348:	90 e0       	ldi	r25, 0x00	; 0
    234a:	a0 e0       	ldi	r26, 0x00	; 0
    234c:	b0 e0       	ldi	r27, 0x00	; 0
    234e:	e8 0e       	add	r14, r24
    2350:	f9 1e       	adc	r15, r25
    2352:	0a 1f       	adc	r16, r26
    2354:	1b 1f       	adc	r17, r27
    2356:	17 ff       	sbrs	r17, 7
    2358:	05 c0       	rjmp	.+10     	; 0x2364 <__pack_f+0x162>
    235a:	16 95       	lsr	r17
    235c:	07 95       	ror	r16
    235e:	f7 94       	ror	r15
    2360:	e7 94       	ror	r14
    2362:	31 96       	adiw	r30, 0x01	; 1
    2364:	87 e0       	ldi	r24, 0x07	; 7
    2366:	16 95       	lsr	r17
    2368:	07 95       	ror	r16
    236a:	f7 94       	ror	r15
    236c:	e7 94       	ror	r14
    236e:	8a 95       	dec	r24
    2370:	d1 f7       	brne	.-12     	; 0x2366 <__pack_f+0x164>
    2372:	05 c0       	rjmp	.+10     	; 0x237e <__pack_f+0x17c>
    2374:	ee 24       	eor	r14, r14
    2376:	ff 24       	eor	r15, r15
    2378:	87 01       	movw	r16, r14
    237a:	ef ef       	ldi	r30, 0xFF	; 255
    237c:	f0 e0       	ldi	r31, 0x00	; 0
    237e:	6e 2f       	mov	r22, r30
    2380:	67 95       	ror	r22
    2382:	66 27       	eor	r22, r22
    2384:	67 95       	ror	r22
    2386:	90 2f       	mov	r25, r16
    2388:	9f 77       	andi	r25, 0x7F	; 127
    238a:	d7 94       	ror	r13
    238c:	dd 24       	eor	r13, r13
    238e:	d7 94       	ror	r13
    2390:	8e 2f       	mov	r24, r30
    2392:	86 95       	lsr	r24
    2394:	49 2f       	mov	r20, r25
    2396:	46 2b       	or	r20, r22
    2398:	58 2f       	mov	r21, r24
    239a:	5d 29       	or	r21, r13
    239c:	b7 01       	movw	r22, r14
    239e:	ca 01       	movw	r24, r20
    23a0:	1f 91       	pop	r17
    23a2:	0f 91       	pop	r16
    23a4:	ff 90       	pop	r15
    23a6:	ef 90       	pop	r14
    23a8:	df 90       	pop	r13
    23aa:	08 95       	ret

000023ac <__unpack_f>:
    23ac:	fc 01       	movw	r30, r24
    23ae:	db 01       	movw	r26, r22
    23b0:	40 81       	ld	r20, Z
    23b2:	51 81       	ldd	r21, Z+1	; 0x01
    23b4:	22 81       	ldd	r18, Z+2	; 0x02
    23b6:	62 2f       	mov	r22, r18
    23b8:	6f 77       	andi	r22, 0x7F	; 127
    23ba:	70 e0       	ldi	r23, 0x00	; 0
    23bc:	22 1f       	adc	r18, r18
    23be:	22 27       	eor	r18, r18
    23c0:	22 1f       	adc	r18, r18
    23c2:	93 81       	ldd	r25, Z+3	; 0x03
    23c4:	89 2f       	mov	r24, r25
    23c6:	88 0f       	add	r24, r24
    23c8:	82 2b       	or	r24, r18
    23ca:	28 2f       	mov	r18, r24
    23cc:	30 e0       	ldi	r19, 0x00	; 0
    23ce:	99 1f       	adc	r25, r25
    23d0:	99 27       	eor	r25, r25
    23d2:	99 1f       	adc	r25, r25
    23d4:	11 96       	adiw	r26, 0x01	; 1
    23d6:	9c 93       	st	X, r25
    23d8:	11 97       	sbiw	r26, 0x01	; 1
    23da:	21 15       	cp	r18, r1
    23dc:	31 05       	cpc	r19, r1
    23de:	a9 f5       	brne	.+106    	; 0x244a <__unpack_f+0x9e>
    23e0:	41 15       	cp	r20, r1
    23e2:	51 05       	cpc	r21, r1
    23e4:	61 05       	cpc	r22, r1
    23e6:	71 05       	cpc	r23, r1
    23e8:	11 f4       	brne	.+4      	; 0x23ee <__unpack_f+0x42>
    23ea:	82 e0       	ldi	r24, 0x02	; 2
    23ec:	37 c0       	rjmp	.+110    	; 0x245c <__unpack_f+0xb0>
    23ee:	82 e8       	ldi	r24, 0x82	; 130
    23f0:	9f ef       	ldi	r25, 0xFF	; 255
    23f2:	13 96       	adiw	r26, 0x03	; 3
    23f4:	9c 93       	st	X, r25
    23f6:	8e 93       	st	-X, r24
    23f8:	12 97       	sbiw	r26, 0x02	; 2
    23fa:	9a 01       	movw	r18, r20
    23fc:	ab 01       	movw	r20, r22
    23fe:	67 e0       	ldi	r22, 0x07	; 7
    2400:	22 0f       	add	r18, r18
    2402:	33 1f       	adc	r19, r19
    2404:	44 1f       	adc	r20, r20
    2406:	55 1f       	adc	r21, r21
    2408:	6a 95       	dec	r22
    240a:	d1 f7       	brne	.-12     	; 0x2400 <__unpack_f+0x54>
    240c:	83 e0       	ldi	r24, 0x03	; 3
    240e:	8c 93       	st	X, r24
    2410:	0d c0       	rjmp	.+26     	; 0x242c <__unpack_f+0x80>
    2412:	22 0f       	add	r18, r18
    2414:	33 1f       	adc	r19, r19
    2416:	44 1f       	adc	r20, r20
    2418:	55 1f       	adc	r21, r21
    241a:	12 96       	adiw	r26, 0x02	; 2
    241c:	8d 91       	ld	r24, X+
    241e:	9c 91       	ld	r25, X
    2420:	13 97       	sbiw	r26, 0x03	; 3
    2422:	01 97       	sbiw	r24, 0x01	; 1
    2424:	13 96       	adiw	r26, 0x03	; 3
    2426:	9c 93       	st	X, r25
    2428:	8e 93       	st	-X, r24
    242a:	12 97       	sbiw	r26, 0x02	; 2
    242c:	20 30       	cpi	r18, 0x00	; 0
    242e:	80 e0       	ldi	r24, 0x00	; 0
    2430:	38 07       	cpc	r19, r24
    2432:	80 e0       	ldi	r24, 0x00	; 0
    2434:	48 07       	cpc	r20, r24
    2436:	80 e4       	ldi	r24, 0x40	; 64
    2438:	58 07       	cpc	r21, r24
    243a:	58 f3       	brcs	.-42     	; 0x2412 <__unpack_f+0x66>
    243c:	14 96       	adiw	r26, 0x04	; 4
    243e:	2d 93       	st	X+, r18
    2440:	3d 93       	st	X+, r19
    2442:	4d 93       	st	X+, r20
    2444:	5c 93       	st	X, r21
    2446:	17 97       	sbiw	r26, 0x07	; 7
    2448:	08 95       	ret
    244a:	2f 3f       	cpi	r18, 0xFF	; 255
    244c:	31 05       	cpc	r19, r1
    244e:	79 f4       	brne	.+30     	; 0x246e <__unpack_f+0xc2>
    2450:	41 15       	cp	r20, r1
    2452:	51 05       	cpc	r21, r1
    2454:	61 05       	cpc	r22, r1
    2456:	71 05       	cpc	r23, r1
    2458:	19 f4       	brne	.+6      	; 0x2460 <__unpack_f+0xb4>
    245a:	84 e0       	ldi	r24, 0x04	; 4
    245c:	8c 93       	st	X, r24
    245e:	08 95       	ret
    2460:	64 ff       	sbrs	r22, 4
    2462:	03 c0       	rjmp	.+6      	; 0x246a <__unpack_f+0xbe>
    2464:	81 e0       	ldi	r24, 0x01	; 1
    2466:	8c 93       	st	X, r24
    2468:	12 c0       	rjmp	.+36     	; 0x248e <__unpack_f+0xe2>
    246a:	1c 92       	st	X, r1
    246c:	10 c0       	rjmp	.+32     	; 0x248e <__unpack_f+0xe2>
    246e:	2f 57       	subi	r18, 0x7F	; 127
    2470:	30 40       	sbci	r19, 0x00	; 0
    2472:	13 96       	adiw	r26, 0x03	; 3
    2474:	3c 93       	st	X, r19
    2476:	2e 93       	st	-X, r18
    2478:	12 97       	sbiw	r26, 0x02	; 2
    247a:	83 e0       	ldi	r24, 0x03	; 3
    247c:	8c 93       	st	X, r24
    247e:	87 e0       	ldi	r24, 0x07	; 7
    2480:	44 0f       	add	r20, r20
    2482:	55 1f       	adc	r21, r21
    2484:	66 1f       	adc	r22, r22
    2486:	77 1f       	adc	r23, r23
    2488:	8a 95       	dec	r24
    248a:	d1 f7       	brne	.-12     	; 0x2480 <__unpack_f+0xd4>
    248c:	70 64       	ori	r23, 0x40	; 64
    248e:	14 96       	adiw	r26, 0x04	; 4
    2490:	4d 93       	st	X+, r20
    2492:	5d 93       	st	X+, r21
    2494:	6d 93       	st	X+, r22
    2496:	7c 93       	st	X, r23
    2498:	17 97       	sbiw	r26, 0x07	; 7
    249a:	08 95       	ret

0000249c <__fpcmp_parts_f>:
    249c:	1f 93       	push	r17
    249e:	dc 01       	movw	r26, r24
    24a0:	fb 01       	movw	r30, r22
    24a2:	9c 91       	ld	r25, X
    24a4:	92 30       	cpi	r25, 0x02	; 2
    24a6:	08 f4       	brcc	.+2      	; 0x24aa <__fpcmp_parts_f+0xe>
    24a8:	47 c0       	rjmp	.+142    	; 0x2538 <__fpcmp_parts_f+0x9c>
    24aa:	80 81       	ld	r24, Z
    24ac:	82 30       	cpi	r24, 0x02	; 2
    24ae:	08 f4       	brcc	.+2      	; 0x24b2 <__fpcmp_parts_f+0x16>
    24b0:	43 c0       	rjmp	.+134    	; 0x2538 <__fpcmp_parts_f+0x9c>
    24b2:	94 30       	cpi	r25, 0x04	; 4
    24b4:	51 f4       	brne	.+20     	; 0x24ca <__fpcmp_parts_f+0x2e>
    24b6:	11 96       	adiw	r26, 0x01	; 1
    24b8:	1c 91       	ld	r17, X
    24ba:	84 30       	cpi	r24, 0x04	; 4
    24bc:	99 f5       	brne	.+102    	; 0x2524 <__fpcmp_parts_f+0x88>
    24be:	81 81       	ldd	r24, Z+1	; 0x01
    24c0:	68 2f       	mov	r22, r24
    24c2:	70 e0       	ldi	r23, 0x00	; 0
    24c4:	61 1b       	sub	r22, r17
    24c6:	71 09       	sbc	r23, r1
    24c8:	3f c0       	rjmp	.+126    	; 0x2548 <__fpcmp_parts_f+0xac>
    24ca:	84 30       	cpi	r24, 0x04	; 4
    24cc:	21 f0       	breq	.+8      	; 0x24d6 <__fpcmp_parts_f+0x3a>
    24ce:	92 30       	cpi	r25, 0x02	; 2
    24d0:	31 f4       	brne	.+12     	; 0x24de <__fpcmp_parts_f+0x42>
    24d2:	82 30       	cpi	r24, 0x02	; 2
    24d4:	b9 f1       	breq	.+110    	; 0x2544 <__fpcmp_parts_f+0xa8>
    24d6:	81 81       	ldd	r24, Z+1	; 0x01
    24d8:	88 23       	and	r24, r24
    24da:	89 f1       	breq	.+98     	; 0x253e <__fpcmp_parts_f+0xa2>
    24dc:	2d c0       	rjmp	.+90     	; 0x2538 <__fpcmp_parts_f+0x9c>
    24de:	11 96       	adiw	r26, 0x01	; 1
    24e0:	1c 91       	ld	r17, X
    24e2:	11 97       	sbiw	r26, 0x01	; 1
    24e4:	82 30       	cpi	r24, 0x02	; 2
    24e6:	f1 f0       	breq	.+60     	; 0x2524 <__fpcmp_parts_f+0x88>
    24e8:	81 81       	ldd	r24, Z+1	; 0x01
    24ea:	18 17       	cp	r17, r24
    24ec:	d9 f4       	brne	.+54     	; 0x2524 <__fpcmp_parts_f+0x88>
    24ee:	12 96       	adiw	r26, 0x02	; 2
    24f0:	2d 91       	ld	r18, X+
    24f2:	3c 91       	ld	r19, X
    24f4:	13 97       	sbiw	r26, 0x03	; 3
    24f6:	82 81       	ldd	r24, Z+2	; 0x02
    24f8:	93 81       	ldd	r25, Z+3	; 0x03
    24fa:	82 17       	cp	r24, r18
    24fc:	93 07       	cpc	r25, r19
    24fe:	94 f0       	brlt	.+36     	; 0x2524 <__fpcmp_parts_f+0x88>
    2500:	28 17       	cp	r18, r24
    2502:	39 07       	cpc	r19, r25
    2504:	bc f0       	brlt	.+46     	; 0x2534 <__fpcmp_parts_f+0x98>
    2506:	14 96       	adiw	r26, 0x04	; 4
    2508:	8d 91       	ld	r24, X+
    250a:	9d 91       	ld	r25, X+
    250c:	0d 90       	ld	r0, X+
    250e:	bc 91       	ld	r27, X
    2510:	a0 2d       	mov	r26, r0
    2512:	24 81       	ldd	r18, Z+4	; 0x04
    2514:	35 81       	ldd	r19, Z+5	; 0x05
    2516:	46 81       	ldd	r20, Z+6	; 0x06
    2518:	57 81       	ldd	r21, Z+7	; 0x07
    251a:	28 17       	cp	r18, r24
    251c:	39 07       	cpc	r19, r25
    251e:	4a 07       	cpc	r20, r26
    2520:	5b 07       	cpc	r21, r27
    2522:	18 f4       	brcc	.+6      	; 0x252a <__fpcmp_parts_f+0x8e>
    2524:	11 23       	and	r17, r17
    2526:	41 f0       	breq	.+16     	; 0x2538 <__fpcmp_parts_f+0x9c>
    2528:	0a c0       	rjmp	.+20     	; 0x253e <__fpcmp_parts_f+0xa2>
    252a:	82 17       	cp	r24, r18
    252c:	93 07       	cpc	r25, r19
    252e:	a4 07       	cpc	r26, r20
    2530:	b5 07       	cpc	r27, r21
    2532:	40 f4       	brcc	.+16     	; 0x2544 <__fpcmp_parts_f+0xa8>
    2534:	11 23       	and	r17, r17
    2536:	19 f0       	breq	.+6      	; 0x253e <__fpcmp_parts_f+0xa2>
    2538:	61 e0       	ldi	r22, 0x01	; 1
    253a:	70 e0       	ldi	r23, 0x00	; 0
    253c:	05 c0       	rjmp	.+10     	; 0x2548 <__fpcmp_parts_f+0xac>
    253e:	6f ef       	ldi	r22, 0xFF	; 255
    2540:	7f ef       	ldi	r23, 0xFF	; 255
    2542:	02 c0       	rjmp	.+4      	; 0x2548 <__fpcmp_parts_f+0xac>
    2544:	60 e0       	ldi	r22, 0x00	; 0
    2546:	70 e0       	ldi	r23, 0x00	; 0
    2548:	cb 01       	movw	r24, r22
    254a:	1f 91       	pop	r17
    254c:	08 95       	ret

0000254e <ADC_vInit>:
    254e:	3e 9a       	sbi	0x07, 6	; 7
    2550:	3f 98       	cbi	0x07, 7	; 7
    2552:	3d 98       	cbi	0x07, 5	; 7
    2554:	86 b1       	in	r24, 0x06	; 6
    2556:	88 7f       	andi	r24, 0xF8	; 248
    2558:	86 b9       	out	0x06, r24	; 6
    255a:	86 b1       	in	r24, 0x06	; 6
    255c:	86 60       	ori	r24, 0x06	; 6
    255e:	86 b9       	out	0x06, r24	; 6
    2560:	37 9a       	sbi	0x06, 7	; 6
    2562:	33 98       	cbi	0x06, 3	; 6
    2564:	08 95       	ret

00002566 <ADC_vEnable>:
    2566:	37 9a       	sbi	0x06, 7	; 6
    2568:	08 95       	ret

0000256a <ADC_vDisable>:
    256a:	37 98       	cbi	0x06, 7	; 6
    256c:	08 95       	ret

0000256e <ADC_vInterruptEnable>:
    256e:	33 9a       	sbi	0x06, 3	; 6
    2570:	08 95       	ret

00002572 <ADC_vInterruptDisable>:
    2572:	33 98       	cbi	0x06, 3	; 6
    2574:	08 95       	ret

00002576 <ADC_u8SetPrescaler>:
    2576:	98 2f       	mov	r25, r24
    2578:	88 30       	cpi	r24, 0x08	; 8
    257a:	30 f4       	brcc	.+12     	; 0x2588 <ADC_u8SetPrescaler+0x12>
    257c:	86 b1       	in	r24, 0x06	; 6
    257e:	88 7f       	andi	r24, 0xF8	; 248
    2580:	86 b9       	out	0x06, r24	; 6
    2582:	86 b1       	in	r24, 0x06	; 6
    2584:	89 2b       	or	r24, r25
    2586:	86 b9       	out	0x06, r24	; 6
    2588:	80 e0       	ldi	r24, 0x00	; 0
    258a:	08 95       	ret

0000258c <ADC_u8GetResultSync>:
    258c:	98 2f       	mov	r25, r24
    258e:	fb 01       	movw	r30, r22
    2590:	61 15       	cp	r22, r1
    2592:	71 05       	cpc	r23, r1
    2594:	19 f4       	brne	.+6      	; 0x259c <ADC_u8GetResultSync+0x10>
    2596:	22 e0       	ldi	r18, 0x02	; 2
    2598:	30 e0       	ldi	r19, 0x00	; 0
    259a:	38 c0       	rjmp	.+112    	; 0x260c <ADC_u8GetResultSync+0x80>
    259c:	80 91 ec 02 	lds	r24, 0x02EC
    25a0:	88 23       	and	r24, r24
    25a2:	19 f0       	breq	.+6      	; 0x25aa <ADC_u8GetResultSync+0x1e>
    25a4:	23 e0       	ldi	r18, 0x03	; 3
    25a6:	30 e0       	ldi	r19, 0x00	; 0
    25a8:	31 c0       	rjmp	.+98     	; 0x260c <ADC_u8GetResultSync+0x80>
    25aa:	87 b1       	in	r24, 0x07	; 7
    25ac:	80 7e       	andi	r24, 0xE0	; 224
    25ae:	87 b9       	out	0x07, r24	; 7
    25b0:	87 b1       	in	r24, 0x07	; 7
    25b2:	89 2b       	or	r24, r25
    25b4:	87 b9       	out	0x07, r24	; 7
    25b6:	36 9a       	sbi	0x06, 6	; 6
    25b8:	80 e0       	ldi	r24, 0x00	; 0
    25ba:	90 e0       	ldi	r25, 0x00	; 0
    25bc:	a0 e0       	ldi	r26, 0x00	; 0
    25be:	b0 e0       	ldi	r27, 0x00	; 0
    25c0:	03 c0       	rjmp	.+6      	; 0x25c8 <ADC_u8GetResultSync+0x3c>
    25c2:	01 96       	adiw	r24, 0x01	; 1
    25c4:	a1 1d       	adc	r26, r1
    25c6:	b1 1d       	adc	r27, r1
    25c8:	34 9b       	sbis	0x06, 4	; 6
    25ca:	06 c0       	rjmp	.+12     	; 0x25d8 <ADC_u8GetResultSync+0x4c>
    25cc:	80 55       	subi	r24, 0x50	; 80
    25ce:	93 4c       	sbci	r25, 0xC3	; 195
    25d0:	a0 40       	sbci	r26, 0x00	; 0
    25d2:	b0 40       	sbci	r27, 0x00	; 0
    25d4:	51 f4       	brne	.+20     	; 0x25ea <ADC_u8GetResultSync+0x5e>
    25d6:	16 c0       	rjmp	.+44     	; 0x2604 <ADC_u8GetResultSync+0x78>
    25d8:	80 35       	cpi	r24, 0x50	; 80
    25da:	23 ec       	ldi	r18, 0xC3	; 195
    25dc:	92 07       	cpc	r25, r18
    25de:	20 e0       	ldi	r18, 0x00	; 0
    25e0:	a2 07       	cpc	r26, r18
    25e2:	20 e0       	ldi	r18, 0x00	; 0
    25e4:	b2 07       	cpc	r27, r18
    25e6:	69 f7       	brne	.-38     	; 0x25c2 <ADC_u8GetResultSync+0x36>
    25e8:	0d c0       	rjmp	.+26     	; 0x2604 <ADC_u8GetResultSync+0x78>
    25ea:	34 9a       	sbi	0x06, 4	; 6
    25ec:	84 b1       	in	r24, 0x04	; 4
    25ee:	45 b1       	in	r20, 0x05	; 5
    25f0:	34 2f       	mov	r19, r20
    25f2:	20 e0       	ldi	r18, 0x00	; 0
    25f4:	90 e0       	ldi	r25, 0x00	; 0
    25f6:	28 2b       	or	r18, r24
    25f8:	39 2b       	or	r19, r25
    25fa:	31 83       	std	Z+1, r19	; 0x01
    25fc:	20 83       	st	Z, r18
    25fe:	20 e0       	ldi	r18, 0x00	; 0
    2600:	30 e0       	ldi	r19, 0x00	; 0
    2602:	02 c0       	rjmp	.+4      	; 0x2608 <ADC_u8GetResultSync+0x7c>
    2604:	24 e0       	ldi	r18, 0x04	; 4
    2606:	30 e0       	ldi	r19, 0x00	; 0
    2608:	10 92 ec 02 	sts	0x02EC, r1
    260c:	c9 01       	movw	r24, r18
    260e:	08 95       	ret

00002610 <ADC_u8StartConversionAsynch>:
    2610:	98 2f       	mov	r25, r24
    2612:	61 15       	cp	r22, r1
    2614:	71 05       	cpc	r23, r1
    2616:	01 f1       	breq	.+64     	; 0x2658 <ADC_u8StartConversionAsynch+0x48>
    2618:	41 15       	cp	r20, r1
    261a:	51 05       	cpc	r21, r1
    261c:	e9 f0       	breq	.+58     	; 0x2658 <ADC_u8StartConversionAsynch+0x48>
    261e:	80 91 ec 02 	lds	r24, 0x02EC
    2622:	88 23       	and	r24, r24
    2624:	11 f0       	breq	.+4      	; 0x262a <ADC_u8StartConversionAsynch+0x1a>
    2626:	83 e0       	ldi	r24, 0x03	; 3
    2628:	08 95       	ret
    262a:	81 e0       	ldi	r24, 0x01	; 1
    262c:	80 93 ec 02 	sts	0x02EC, r24
    2630:	10 92 ef 02 	sts	0x02EF, r1
    2634:	70 93 eb 02 	sts	0x02EB, r23
    2638:	60 93 ea 02 	sts	0x02EA, r22
    263c:	50 93 ee 02 	sts	0x02EE, r21
    2640:	40 93 ed 02 	sts	0x02ED, r20
    2644:	87 b1       	in	r24, 0x07	; 7
    2646:	80 7e       	andi	r24, 0xE0	; 224
    2648:	87 b9       	out	0x07, r24	; 7
    264a:	87 b1       	in	r24, 0x07	; 7
    264c:	89 2b       	or	r24, r25
    264e:	87 b9       	out	0x07, r24	; 7
    2650:	36 9a       	sbi	0x06, 6	; 6
    2652:	33 9a       	sbi	0x06, 3	; 6
    2654:	80 e0       	ldi	r24, 0x00	; 0
    2656:	08 95       	ret
    2658:	82 e0       	ldi	r24, 0x02	; 2
    265a:	08 95       	ret

0000265c <ADC_u8StartChainAsynch>:
    265c:	fc 01       	movw	r30, r24
    265e:	00 97       	sbiw	r24, 0x00	; 0
    2660:	a9 f1       	breq	.+106    	; 0x26cc <ADC_u8StartChainAsynch+0x70>
    2662:	a0 81       	ld	r26, Z
    2664:	b1 81       	ldd	r27, Z+1	; 0x01
    2666:	10 97       	sbiw	r26, 0x00	; 0
    2668:	89 f1       	breq	.+98     	; 0x26cc <ADC_u8StartChainAsynch+0x70>
    266a:	45 81       	ldd	r20, Z+5	; 0x05
    266c:	56 81       	ldd	r21, Z+6	; 0x06
    266e:	41 15       	cp	r20, r1
    2670:	51 05       	cpc	r21, r1
    2672:	61 f1       	breq	.+88     	; 0x26cc <ADC_u8StartChainAsynch+0x70>
    2674:	22 81       	ldd	r18, Z+2	; 0x02
    2676:	33 81       	ldd	r19, Z+3	; 0x03
    2678:	21 15       	cp	r18, r1
    267a:	31 05       	cpc	r19, r1
    267c:	39 f1       	breq	.+78     	; 0x26cc <ADC_u8StartChainAsynch+0x70>
    267e:	80 91 ec 02 	lds	r24, 0x02EC
    2682:	88 23       	and	r24, r24
    2684:	11 f0       	breq	.+4      	; 0x268a <ADC_u8StartChainAsynch+0x2e>
    2686:	83 e0       	ldi	r24, 0x03	; 3
    2688:	08 95       	ret
    268a:	81 e0       	ldi	r24, 0x01	; 1
    268c:	80 93 ec 02 	sts	0x02EC, r24
    2690:	80 93 ef 02 	sts	0x02EF, r24
    2694:	30 93 eb 02 	sts	0x02EB, r19
    2698:	20 93 ea 02 	sts	0x02EA, r18
    269c:	b0 93 f1 02 	sts	0x02F1, r27
    26a0:	a0 93 f0 02 	sts	0x02F0, r26
    26a4:	84 81       	ldd	r24, Z+4	; 0x04
    26a6:	80 93 f2 02 	sts	0x02F2, r24
    26aa:	50 93 ee 02 	sts	0x02EE, r21
    26ae:	40 93 ed 02 	sts	0x02ED, r20
    26b2:	10 92 f3 02 	sts	0x02F3, r1
    26b6:	87 b1       	in	r24, 0x07	; 7
    26b8:	80 7e       	andi	r24, 0xE0	; 224
    26ba:	87 b9       	out	0x07, r24	; 7
    26bc:	87 b1       	in	r24, 0x07	; 7
    26be:	9c 91       	ld	r25, X
    26c0:	89 2b       	or	r24, r25
    26c2:	87 b9       	out	0x07, r24	; 7
    26c4:	36 9a       	sbi	0x06, 6	; 6
    26c6:	33 9a       	sbi	0x06, 3	; 6
    26c8:	80 e0       	ldi	r24, 0x00	; 0
    26ca:	08 95       	ret
    26cc:	82 e0       	ldi	r24, 0x02	; 2
    26ce:	08 95       	ret

000026d0 <__vector_16>:
    26d0:	1f 92       	push	r1
    26d2:	0f 92       	push	r0
    26d4:	0f b6       	in	r0, 0x3f	; 63
    26d6:	0f 92       	push	r0
    26d8:	11 24       	eor	r1, r1
    26da:	2f 93       	push	r18
    26dc:	3f 93       	push	r19
    26de:	4f 93       	push	r20
    26e0:	5f 93       	push	r21
    26e2:	6f 93       	push	r22
    26e4:	7f 93       	push	r23
    26e6:	8f 93       	push	r24
    26e8:	9f 93       	push	r25
    26ea:	af 93       	push	r26
    26ec:	bf 93       	push	r27
    26ee:	ef 93       	push	r30
    26f0:	ff 93       	push	r31
    26f2:	80 91 ef 02 	lds	r24, 0x02EF
    26f6:	e0 91 ea 02 	lds	r30, 0x02EA
    26fa:	f0 91 eb 02 	lds	r31, 0x02EB
    26fe:	88 23       	and	r24, r24
    2700:	51 f4       	brne	.+20     	; 0x2716 <__vector_16+0x46>
    2702:	24 b1       	in	r18, 0x04	; 4
    2704:	45 b1       	in	r20, 0x05	; 5
    2706:	94 2f       	mov	r25, r20
    2708:	80 e0       	ldi	r24, 0x00	; 0
    270a:	30 e0       	ldi	r19, 0x00	; 0
    270c:	82 2b       	or	r24, r18
    270e:	93 2b       	or	r25, r19
    2710:	91 83       	std	Z+1, r25	; 0x01
    2712:	80 83       	st	Z, r24
    2714:	12 c0       	rjmp	.+36     	; 0x273a <__vector_16+0x6a>
    2716:	24 b1       	in	r18, 0x04	; 4
    2718:	45 b1       	in	r20, 0x05	; 5
    271a:	94 2f       	mov	r25, r20
    271c:	80 e0       	ldi	r24, 0x00	; 0
    271e:	30 e0       	ldi	r19, 0x00	; 0
    2720:	82 2b       	or	r24, r18
    2722:	93 2b       	or	r25, r19
    2724:	91 83       	std	Z+1, r25	; 0x01
    2726:	80 83       	st	Z, r24
    2728:	20 91 f3 02 	lds	r18, 0x02F3
    272c:	2f 5f       	subi	r18, 0xFF	; 255
    272e:	20 93 f3 02 	sts	0x02F3, r18
    2732:	80 91 f2 02 	lds	r24, 0x02F2
    2736:	28 17       	cp	r18, r24
    2738:	49 f4       	brne	.+18     	; 0x274c <__vector_16+0x7c>
    273a:	10 92 ec 02 	sts	0x02EC, r1
    273e:	e0 91 ed 02 	lds	r30, 0x02ED
    2742:	f0 91 ee 02 	lds	r31, 0x02EE
    2746:	09 95       	icall
    2748:	33 98       	cbi	0x06, 3	; 6
    274a:	0e c0       	rjmp	.+28     	; 0x2768 <__vector_16+0x98>
    274c:	87 b1       	in	r24, 0x07	; 7
    274e:	80 7e       	andi	r24, 0xE0	; 224
    2750:	87 b9       	out	0x07, r24	; 7
    2752:	97 b1       	in	r25, 0x07	; 7
    2754:	e0 91 f0 02 	lds	r30, 0x02F0
    2758:	f0 91 f1 02 	lds	r31, 0x02F1
    275c:	e2 0f       	add	r30, r18
    275e:	f1 1d       	adc	r31, r1
    2760:	80 81       	ld	r24, Z
    2762:	98 2b       	or	r25, r24
    2764:	97 b9       	out	0x07, r25	; 7
    2766:	36 9a       	sbi	0x06, 6	; 6
    2768:	ff 91       	pop	r31
    276a:	ef 91       	pop	r30
    276c:	bf 91       	pop	r27
    276e:	af 91       	pop	r26
    2770:	9f 91       	pop	r25
    2772:	8f 91       	pop	r24
    2774:	7f 91       	pop	r23
    2776:	6f 91       	pop	r22
    2778:	5f 91       	pop	r21
    277a:	4f 91       	pop	r20
    277c:	3f 91       	pop	r19
    277e:	2f 91       	pop	r18
    2780:	0f 90       	pop	r0
    2782:	0f be       	out	0x3f, r0	; 63
    2784:	0f 90       	pop	r0
    2786:	1f 90       	pop	r1
    2788:	18 95       	reti

0000278a <DIO_vSetPinDirection>:
    278a:	41 30       	cpi	r20, 0x01	; 1
    278c:	b1 f5       	brne	.+108    	; 0x27fa <DIO_vSetPinDirection+0x70>
    278e:	81 30       	cpi	r24, 0x01	; 1
    2790:	99 f0       	breq	.+38     	; 0x27b8 <DIO_vSetPinDirection+0x2e>
    2792:	81 30       	cpi	r24, 0x01	; 1
    2794:	30 f0       	brcs	.+12     	; 0x27a2 <DIO_vSetPinDirection+0x18>
    2796:	82 30       	cpi	r24, 0x02	; 2
    2798:	d1 f0       	breq	.+52     	; 0x27ce <DIO_vSetPinDirection+0x44>
    279a:	83 30       	cpi	r24, 0x03	; 3
    279c:	09 f0       	breq	.+2      	; 0x27a0 <DIO_vSetPinDirection+0x16>
    279e:	67 c0       	rjmp	.+206    	; 0x286e <DIO_vSetPinDirection+0xe4>
    27a0:	21 c0       	rjmp	.+66     	; 0x27e4 <DIO_vSetPinDirection+0x5a>
    27a2:	2a b3       	in	r18, 0x1a	; 26
    27a4:	81 e0       	ldi	r24, 0x01	; 1
    27a6:	90 e0       	ldi	r25, 0x00	; 0
    27a8:	02 c0       	rjmp	.+4      	; 0x27ae <DIO_vSetPinDirection+0x24>
    27aa:	88 0f       	add	r24, r24
    27ac:	99 1f       	adc	r25, r25
    27ae:	6a 95       	dec	r22
    27b0:	e2 f7       	brpl	.-8      	; 0x27aa <DIO_vSetPinDirection+0x20>
    27b2:	28 2b       	or	r18, r24
    27b4:	2a bb       	out	0x1a, r18	; 26
    27b6:	08 95       	ret
    27b8:	27 b3       	in	r18, 0x17	; 23
    27ba:	81 e0       	ldi	r24, 0x01	; 1
    27bc:	90 e0       	ldi	r25, 0x00	; 0
    27be:	02 c0       	rjmp	.+4      	; 0x27c4 <DIO_vSetPinDirection+0x3a>
    27c0:	88 0f       	add	r24, r24
    27c2:	99 1f       	adc	r25, r25
    27c4:	6a 95       	dec	r22
    27c6:	e2 f7       	brpl	.-8      	; 0x27c0 <DIO_vSetPinDirection+0x36>
    27c8:	28 2b       	or	r18, r24
    27ca:	27 bb       	out	0x17, r18	; 23
    27cc:	08 95       	ret
    27ce:	24 b3       	in	r18, 0x14	; 20
    27d0:	81 e0       	ldi	r24, 0x01	; 1
    27d2:	90 e0       	ldi	r25, 0x00	; 0
    27d4:	02 c0       	rjmp	.+4      	; 0x27da <DIO_vSetPinDirection+0x50>
    27d6:	88 0f       	add	r24, r24
    27d8:	99 1f       	adc	r25, r25
    27da:	6a 95       	dec	r22
    27dc:	e2 f7       	brpl	.-8      	; 0x27d6 <DIO_vSetPinDirection+0x4c>
    27de:	28 2b       	or	r18, r24
    27e0:	24 bb       	out	0x14, r18	; 20
    27e2:	08 95       	ret
    27e4:	21 b3       	in	r18, 0x11	; 17
    27e6:	81 e0       	ldi	r24, 0x01	; 1
    27e8:	90 e0       	ldi	r25, 0x00	; 0
    27ea:	02 c0       	rjmp	.+4      	; 0x27f0 <DIO_vSetPinDirection+0x66>
    27ec:	88 0f       	add	r24, r24
    27ee:	99 1f       	adc	r25, r25
    27f0:	6a 95       	dec	r22
    27f2:	e2 f7       	brpl	.-8      	; 0x27ec <DIO_vSetPinDirection+0x62>
    27f4:	28 2b       	or	r18, r24
    27f6:	21 bb       	out	0x11, r18	; 17
    27f8:	08 95       	ret
    27fa:	44 23       	and	r20, r20
    27fc:	c1 f5       	brne	.+112    	; 0x286e <DIO_vSetPinDirection+0xe4>
    27fe:	81 30       	cpi	r24, 0x01	; 1
    2800:	99 f0       	breq	.+38     	; 0x2828 <DIO_vSetPinDirection+0x9e>
    2802:	81 30       	cpi	r24, 0x01	; 1
    2804:	28 f0       	brcs	.+10     	; 0x2810 <DIO_vSetPinDirection+0x86>
    2806:	82 30       	cpi	r24, 0x02	; 2
    2808:	d9 f0       	breq	.+54     	; 0x2840 <DIO_vSetPinDirection+0xb6>
    280a:	83 30       	cpi	r24, 0x03	; 3
    280c:	81 f5       	brne	.+96     	; 0x286e <DIO_vSetPinDirection+0xe4>
    280e:	24 c0       	rjmp	.+72     	; 0x2858 <DIO_vSetPinDirection+0xce>
    2810:	2a b3       	in	r18, 0x1a	; 26
    2812:	81 e0       	ldi	r24, 0x01	; 1
    2814:	90 e0       	ldi	r25, 0x00	; 0
    2816:	02 c0       	rjmp	.+4      	; 0x281c <DIO_vSetPinDirection+0x92>
    2818:	88 0f       	add	r24, r24
    281a:	99 1f       	adc	r25, r25
    281c:	6a 95       	dec	r22
    281e:	e2 f7       	brpl	.-8      	; 0x2818 <DIO_vSetPinDirection+0x8e>
    2820:	80 95       	com	r24
    2822:	82 23       	and	r24, r18
    2824:	8a bb       	out	0x1a, r24	; 26
    2826:	08 95       	ret
    2828:	27 b3       	in	r18, 0x17	; 23
    282a:	81 e0       	ldi	r24, 0x01	; 1
    282c:	90 e0       	ldi	r25, 0x00	; 0
    282e:	02 c0       	rjmp	.+4      	; 0x2834 <DIO_vSetPinDirection+0xaa>
    2830:	88 0f       	add	r24, r24
    2832:	99 1f       	adc	r25, r25
    2834:	6a 95       	dec	r22
    2836:	e2 f7       	brpl	.-8      	; 0x2830 <DIO_vSetPinDirection+0xa6>
    2838:	80 95       	com	r24
    283a:	82 23       	and	r24, r18
    283c:	87 bb       	out	0x17, r24	; 23
    283e:	08 95       	ret
    2840:	24 b3       	in	r18, 0x14	; 20
    2842:	81 e0       	ldi	r24, 0x01	; 1
    2844:	90 e0       	ldi	r25, 0x00	; 0
    2846:	02 c0       	rjmp	.+4      	; 0x284c <DIO_vSetPinDirection+0xc2>
    2848:	88 0f       	add	r24, r24
    284a:	99 1f       	adc	r25, r25
    284c:	6a 95       	dec	r22
    284e:	e2 f7       	brpl	.-8      	; 0x2848 <DIO_vSetPinDirection+0xbe>
    2850:	80 95       	com	r24
    2852:	82 23       	and	r24, r18
    2854:	84 bb       	out	0x14, r24	; 20
    2856:	08 95       	ret
    2858:	21 b3       	in	r18, 0x11	; 17
    285a:	81 e0       	ldi	r24, 0x01	; 1
    285c:	90 e0       	ldi	r25, 0x00	; 0
    285e:	02 c0       	rjmp	.+4      	; 0x2864 <DIO_vSetPinDirection+0xda>
    2860:	88 0f       	add	r24, r24
    2862:	99 1f       	adc	r25, r25
    2864:	6a 95       	dec	r22
    2866:	e2 f7       	brpl	.-8      	; 0x2860 <DIO_vSetPinDirection+0xd6>
    2868:	80 95       	com	r24
    286a:	82 23       	and	r24, r18
    286c:	81 bb       	out	0x11, r24	; 17
    286e:	08 95       	ret

00002870 <DIO_vSetPinValue>:
    2870:	41 30       	cpi	r20, 0x01	; 1
    2872:	b1 f5       	brne	.+108    	; 0x28e0 <DIO_vSetPinValue+0x70>
    2874:	81 30       	cpi	r24, 0x01	; 1
    2876:	99 f0       	breq	.+38     	; 0x289e <DIO_vSetPinValue+0x2e>
    2878:	81 30       	cpi	r24, 0x01	; 1
    287a:	30 f0       	brcs	.+12     	; 0x2888 <DIO_vSetPinValue+0x18>
    287c:	82 30       	cpi	r24, 0x02	; 2
    287e:	d1 f0       	breq	.+52     	; 0x28b4 <DIO_vSetPinValue+0x44>
    2880:	83 30       	cpi	r24, 0x03	; 3
    2882:	09 f0       	breq	.+2      	; 0x2886 <DIO_vSetPinValue+0x16>
    2884:	67 c0       	rjmp	.+206    	; 0x2954 <DIO_vSetPinValue+0xe4>
    2886:	21 c0       	rjmp	.+66     	; 0x28ca <DIO_vSetPinValue+0x5a>
    2888:	2b b3       	in	r18, 0x1b	; 27
    288a:	81 e0       	ldi	r24, 0x01	; 1
    288c:	90 e0       	ldi	r25, 0x00	; 0
    288e:	02 c0       	rjmp	.+4      	; 0x2894 <DIO_vSetPinValue+0x24>
    2890:	88 0f       	add	r24, r24
    2892:	99 1f       	adc	r25, r25
    2894:	6a 95       	dec	r22
    2896:	e2 f7       	brpl	.-8      	; 0x2890 <DIO_vSetPinValue+0x20>
    2898:	28 2b       	or	r18, r24
    289a:	2b bb       	out	0x1b, r18	; 27
    289c:	08 95       	ret
    289e:	28 b3       	in	r18, 0x18	; 24
    28a0:	81 e0       	ldi	r24, 0x01	; 1
    28a2:	90 e0       	ldi	r25, 0x00	; 0
    28a4:	02 c0       	rjmp	.+4      	; 0x28aa <DIO_vSetPinValue+0x3a>
    28a6:	88 0f       	add	r24, r24
    28a8:	99 1f       	adc	r25, r25
    28aa:	6a 95       	dec	r22
    28ac:	e2 f7       	brpl	.-8      	; 0x28a6 <DIO_vSetPinValue+0x36>
    28ae:	28 2b       	or	r18, r24
    28b0:	28 bb       	out	0x18, r18	; 24
    28b2:	08 95       	ret
    28b4:	25 b3       	in	r18, 0x15	; 21
    28b6:	81 e0       	ldi	r24, 0x01	; 1
    28b8:	90 e0       	ldi	r25, 0x00	; 0
    28ba:	02 c0       	rjmp	.+4      	; 0x28c0 <DIO_vSetPinValue+0x50>
    28bc:	88 0f       	add	r24, r24
    28be:	99 1f       	adc	r25, r25
    28c0:	6a 95       	dec	r22
    28c2:	e2 f7       	brpl	.-8      	; 0x28bc <DIO_vSetPinValue+0x4c>
    28c4:	28 2b       	or	r18, r24
    28c6:	25 bb       	out	0x15, r18	; 21
    28c8:	08 95       	ret
    28ca:	22 b3       	in	r18, 0x12	; 18
    28cc:	81 e0       	ldi	r24, 0x01	; 1
    28ce:	90 e0       	ldi	r25, 0x00	; 0
    28d0:	02 c0       	rjmp	.+4      	; 0x28d6 <DIO_vSetPinValue+0x66>
    28d2:	88 0f       	add	r24, r24
    28d4:	99 1f       	adc	r25, r25
    28d6:	6a 95       	dec	r22
    28d8:	e2 f7       	brpl	.-8      	; 0x28d2 <DIO_vSetPinValue+0x62>
    28da:	28 2b       	or	r18, r24
    28dc:	22 bb       	out	0x12, r18	; 18
    28de:	08 95       	ret
    28e0:	44 23       	and	r20, r20
    28e2:	c1 f5       	brne	.+112    	; 0x2954 <DIO_vSetPinValue+0xe4>
    28e4:	81 30       	cpi	r24, 0x01	; 1
    28e6:	99 f0       	breq	.+38     	; 0x290e <DIO_vSetPinValue+0x9e>
    28e8:	81 30       	cpi	r24, 0x01	; 1
    28ea:	28 f0       	brcs	.+10     	; 0x28f6 <DIO_vSetPinValue+0x86>
    28ec:	82 30       	cpi	r24, 0x02	; 2
    28ee:	d9 f0       	breq	.+54     	; 0x2926 <DIO_vSetPinValue+0xb6>
    28f0:	83 30       	cpi	r24, 0x03	; 3
    28f2:	81 f5       	brne	.+96     	; 0x2954 <DIO_vSetPinValue+0xe4>
    28f4:	24 c0       	rjmp	.+72     	; 0x293e <DIO_vSetPinValue+0xce>
    28f6:	2b b3       	in	r18, 0x1b	; 27
    28f8:	81 e0       	ldi	r24, 0x01	; 1
    28fa:	90 e0       	ldi	r25, 0x00	; 0
    28fc:	02 c0       	rjmp	.+4      	; 0x2902 <DIO_vSetPinValue+0x92>
    28fe:	88 0f       	add	r24, r24
    2900:	99 1f       	adc	r25, r25
    2902:	6a 95       	dec	r22
    2904:	e2 f7       	brpl	.-8      	; 0x28fe <DIO_vSetPinValue+0x8e>
    2906:	80 95       	com	r24
    2908:	82 23       	and	r24, r18
    290a:	8b bb       	out	0x1b, r24	; 27
    290c:	08 95       	ret
    290e:	28 b3       	in	r18, 0x18	; 24
    2910:	81 e0       	ldi	r24, 0x01	; 1
    2912:	90 e0       	ldi	r25, 0x00	; 0
    2914:	02 c0       	rjmp	.+4      	; 0x291a <DIO_vSetPinValue+0xaa>
    2916:	88 0f       	add	r24, r24
    2918:	99 1f       	adc	r25, r25
    291a:	6a 95       	dec	r22
    291c:	e2 f7       	brpl	.-8      	; 0x2916 <DIO_vSetPinValue+0xa6>
    291e:	80 95       	com	r24
    2920:	82 23       	and	r24, r18
    2922:	88 bb       	out	0x18, r24	; 24
    2924:	08 95       	ret
    2926:	25 b3       	in	r18, 0x15	; 21
    2928:	81 e0       	ldi	r24, 0x01	; 1
    292a:	90 e0       	ldi	r25, 0x00	; 0
    292c:	02 c0       	rjmp	.+4      	; 0x2932 <DIO_vSetPinValue+0xc2>
    292e:	88 0f       	add	r24, r24
    2930:	99 1f       	adc	r25, r25
    2932:	6a 95       	dec	r22
    2934:	e2 f7       	brpl	.-8      	; 0x292e <DIO_vSetPinValue+0xbe>
    2936:	80 95       	com	r24
    2938:	82 23       	and	r24, r18
    293a:	85 bb       	out	0x15, r24	; 21
    293c:	08 95       	ret
    293e:	22 b3       	in	r18, 0x12	; 18
    2940:	81 e0       	ldi	r24, 0x01	; 1
    2942:	90 e0       	ldi	r25, 0x00	; 0
    2944:	02 c0       	rjmp	.+4      	; 0x294a <DIO_vSetPinValue+0xda>
    2946:	88 0f       	add	r24, r24
    2948:	99 1f       	adc	r25, r25
    294a:	6a 95       	dec	r22
    294c:	e2 f7       	brpl	.-8      	; 0x2946 <DIO_vSetPinValue+0xd6>
    294e:	80 95       	com	r24
    2950:	82 23       	and	r24, r18
    2952:	82 bb       	out	0x12, r24	; 18
    2954:	08 95       	ret

00002956 <DIO_vTOGPinValue>:
    2956:	81 30       	cpi	r24, 0x01	; 1
    2958:	91 f0       	breq	.+36     	; 0x297e <DIO_vTOGPinValue+0x28>
    295a:	81 30       	cpi	r24, 0x01	; 1
    295c:	28 f0       	brcs	.+10     	; 0x2968 <DIO_vTOGPinValue+0x12>
    295e:	82 30       	cpi	r24, 0x02	; 2
    2960:	c9 f0       	breq	.+50     	; 0x2994 <DIO_vTOGPinValue+0x3e>
    2962:	83 30       	cpi	r24, 0x03	; 3
    2964:	61 f5       	brne	.+88     	; 0x29be <DIO_vTOGPinValue+0x68>
    2966:	21 c0       	rjmp	.+66     	; 0x29aa <DIO_vTOGPinValue+0x54>
    2968:	2b b3       	in	r18, 0x1b	; 27
    296a:	81 e0       	ldi	r24, 0x01	; 1
    296c:	90 e0       	ldi	r25, 0x00	; 0
    296e:	02 c0       	rjmp	.+4      	; 0x2974 <DIO_vTOGPinValue+0x1e>
    2970:	88 0f       	add	r24, r24
    2972:	99 1f       	adc	r25, r25
    2974:	6a 95       	dec	r22
    2976:	e2 f7       	brpl	.-8      	; 0x2970 <DIO_vTOGPinValue+0x1a>
    2978:	28 27       	eor	r18, r24
    297a:	2b bb       	out	0x1b, r18	; 27
    297c:	08 95       	ret
    297e:	28 b3       	in	r18, 0x18	; 24
    2980:	81 e0       	ldi	r24, 0x01	; 1
    2982:	90 e0       	ldi	r25, 0x00	; 0
    2984:	02 c0       	rjmp	.+4      	; 0x298a <DIO_vTOGPinValue+0x34>
    2986:	88 0f       	add	r24, r24
    2988:	99 1f       	adc	r25, r25
    298a:	6a 95       	dec	r22
    298c:	e2 f7       	brpl	.-8      	; 0x2986 <DIO_vTOGPinValue+0x30>
    298e:	28 27       	eor	r18, r24
    2990:	28 bb       	out	0x18, r18	; 24
    2992:	08 95       	ret
    2994:	25 b3       	in	r18, 0x15	; 21
    2996:	81 e0       	ldi	r24, 0x01	; 1
    2998:	90 e0       	ldi	r25, 0x00	; 0
    299a:	02 c0       	rjmp	.+4      	; 0x29a0 <DIO_vTOGPinValue+0x4a>
    299c:	88 0f       	add	r24, r24
    299e:	99 1f       	adc	r25, r25
    29a0:	6a 95       	dec	r22
    29a2:	e2 f7       	brpl	.-8      	; 0x299c <DIO_vTOGPinValue+0x46>
    29a4:	28 27       	eor	r18, r24
    29a6:	25 bb       	out	0x15, r18	; 21
    29a8:	08 95       	ret
    29aa:	22 b3       	in	r18, 0x12	; 18
    29ac:	81 e0       	ldi	r24, 0x01	; 1
    29ae:	90 e0       	ldi	r25, 0x00	; 0
    29b0:	02 c0       	rjmp	.+4      	; 0x29b6 <DIO_vTOGPinValue+0x60>
    29b2:	88 0f       	add	r24, r24
    29b4:	99 1f       	adc	r25, r25
    29b6:	6a 95       	dec	r22
    29b8:	e2 f7       	brpl	.-8      	; 0x29b2 <DIO_vTOGPinValue+0x5c>
    29ba:	28 27       	eor	r18, r24
    29bc:	22 bb       	out	0x12, r18	; 18
    29be:	08 95       	ret

000029c0 <DIO_u8GetPinValue>:
    29c0:	81 30       	cpi	r24, 0x01	; 1
    29c2:	51 f0       	breq	.+20     	; 0x29d8 <DIO_u8GetPinValue+0x18>
    29c4:	81 30       	cpi	r24, 0x01	; 1
    29c6:	30 f0       	brcs	.+12     	; 0x29d4 <DIO_u8GetPinValue+0x14>
    29c8:	82 30       	cpi	r24, 0x02	; 2
    29ca:	41 f0       	breq	.+16     	; 0x29dc <DIO_u8GetPinValue+0x1c>
    29cc:	83 30       	cpi	r24, 0x03	; 3
    29ce:	c1 f0       	breq	.+48     	; 0x2a00 <DIO_u8GetPinValue+0x40>
    29d0:	80 e0       	ldi	r24, 0x00	; 0
    29d2:	08 95       	ret
    29d4:	29 b3       	in	r18, 0x19	; 25
    29d6:	03 c0       	rjmp	.+6      	; 0x29de <DIO_u8GetPinValue+0x1e>
    29d8:	26 b3       	in	r18, 0x16	; 22
    29da:	01 c0       	rjmp	.+2      	; 0x29de <DIO_u8GetPinValue+0x1e>
    29dc:	23 b3       	in	r18, 0x13	; 19
    29de:	81 e0       	ldi	r24, 0x01	; 1
    29e0:	90 e0       	ldi	r25, 0x00	; 0
    29e2:	06 2e       	mov	r0, r22
    29e4:	02 c0       	rjmp	.+4      	; 0x29ea <DIO_u8GetPinValue+0x2a>
    29e6:	88 0f       	add	r24, r24
    29e8:	99 1f       	adc	r25, r25
    29ea:	0a 94       	dec	r0
    29ec:	e2 f7       	brpl	.-8      	; 0x29e6 <DIO_u8GetPinValue+0x26>
    29ee:	30 e0       	ldi	r19, 0x00	; 0
    29f0:	82 23       	and	r24, r18
    29f2:	93 23       	and	r25, r19
    29f4:	02 c0       	rjmp	.+4      	; 0x29fa <DIO_u8GetPinValue+0x3a>
    29f6:	95 95       	asr	r25
    29f8:	87 95       	ror	r24
    29fa:	6a 95       	dec	r22
    29fc:	e2 f7       	brpl	.-8      	; 0x29f6 <DIO_u8GetPinValue+0x36>
    29fe:	08 95       	ret
    2a00:	20 b3       	in	r18, 0x10	; 16
    2a02:	81 e0       	ldi	r24, 0x01	; 1
    2a04:	90 e0       	ldi	r25, 0x00	; 0
    2a06:	06 2e       	mov	r0, r22
    2a08:	02 c0       	rjmp	.+4      	; 0x2a0e <DIO_u8GetPinValue+0x4e>
    2a0a:	88 0f       	add	r24, r24
    2a0c:	99 1f       	adc	r25, r25
    2a0e:	0a 94       	dec	r0
    2a10:	e2 f7       	brpl	.-8      	; 0x2a0a <DIO_u8GetPinValue+0x4a>
    2a12:	30 e0       	ldi	r19, 0x00	; 0
    2a14:	82 23       	and	r24, r18
    2a16:	93 23       	and	r25, r19
    2a18:	02 c0       	rjmp	.+4      	; 0x2a1e <DIO_u8GetPinValue+0x5e>
    2a1a:	95 95       	asr	r25
    2a1c:	87 95       	ror	r24
    2a1e:	6a 95       	dec	r22
    2a20:	e2 f7       	brpl	.-8      	; 0x2a1a <DIO_u8GetPinValue+0x5a>
    2a22:	08 95       	ret

00002a24 <DIO_vSetPortDirection>:
    2a24:	81 30       	cpi	r24, 0x01	; 1
    2a26:	49 f0       	breq	.+18     	; 0x2a3a <DIO_vSetPortDirection+0x16>
    2a28:	81 30       	cpi	r24, 0x01	; 1
    2a2a:	28 f0       	brcs	.+10     	; 0x2a36 <DIO_vSetPortDirection+0x12>
    2a2c:	82 30       	cpi	r24, 0x02	; 2
    2a2e:	39 f0       	breq	.+14     	; 0x2a3e <DIO_vSetPortDirection+0x1a>
    2a30:	83 30       	cpi	r24, 0x03	; 3
    2a32:	41 f4       	brne	.+16     	; 0x2a44 <DIO_vSetPortDirection+0x20>
    2a34:	06 c0       	rjmp	.+12     	; 0x2a42 <DIO_vSetPortDirection+0x1e>
    2a36:	6a bb       	out	0x1a, r22	; 26
    2a38:	08 95       	ret
    2a3a:	67 bb       	out	0x17, r22	; 23
    2a3c:	08 95       	ret
    2a3e:	64 bb       	out	0x14, r22	; 20
    2a40:	08 95       	ret
    2a42:	61 bb       	out	0x11, r22	; 17
    2a44:	08 95       	ret

00002a46 <DIO_vSetPortValue>:
    2a46:	81 30       	cpi	r24, 0x01	; 1
    2a48:	49 f0       	breq	.+18     	; 0x2a5c <DIO_vSetPortValue+0x16>
    2a4a:	81 30       	cpi	r24, 0x01	; 1
    2a4c:	28 f0       	brcs	.+10     	; 0x2a58 <DIO_vSetPortValue+0x12>
    2a4e:	82 30       	cpi	r24, 0x02	; 2
    2a50:	39 f0       	breq	.+14     	; 0x2a60 <DIO_vSetPortValue+0x1a>
    2a52:	83 30       	cpi	r24, 0x03	; 3
    2a54:	41 f4       	brne	.+16     	; 0x2a66 <DIO_vSetPortValue+0x20>
    2a56:	06 c0       	rjmp	.+12     	; 0x2a64 <DIO_vSetPortValue+0x1e>
    2a58:	6b bb       	out	0x1b, r22	; 27
    2a5a:	08 95       	ret
    2a5c:	68 bb       	out	0x18, r22	; 24
    2a5e:	08 95       	ret
    2a60:	65 bb       	out	0x15, r22	; 21
    2a62:	08 95       	ret
    2a64:	62 bb       	out	0x12, r22	; 18
    2a66:	08 95       	ret

00002a68 <DIO_vTOGPortValue>:
    2a68:	81 30       	cpi	r24, 0x01	; 1
    2a6a:	59 f0       	breq	.+22     	; 0x2a82 <DIO_vTOGPortValue+0x1a>
    2a6c:	81 30       	cpi	r24, 0x01	; 1
    2a6e:	28 f0       	brcs	.+10     	; 0x2a7a <DIO_vTOGPortValue+0x12>
    2a70:	82 30       	cpi	r24, 0x02	; 2
    2a72:	59 f0       	breq	.+22     	; 0x2a8a <DIO_vTOGPortValue+0x22>
    2a74:	83 30       	cpi	r24, 0x03	; 3
    2a76:	81 f4       	brne	.+32     	; 0x2a98 <DIO_vTOGPortValue+0x30>
    2a78:	0c c0       	rjmp	.+24     	; 0x2a92 <DIO_vTOGPortValue+0x2a>
    2a7a:	8b b3       	in	r24, 0x1b	; 27
    2a7c:	80 95       	com	r24
    2a7e:	8b bb       	out	0x1b, r24	; 27
    2a80:	08 95       	ret
    2a82:	88 b3       	in	r24, 0x18	; 24
    2a84:	80 95       	com	r24
    2a86:	88 bb       	out	0x18, r24	; 24
    2a88:	08 95       	ret
    2a8a:	85 b3       	in	r24, 0x15	; 21
    2a8c:	80 95       	com	r24
    2a8e:	85 bb       	out	0x15, r24	; 21
    2a90:	08 95       	ret
    2a92:	82 b3       	in	r24, 0x12	; 18
    2a94:	80 95       	com	r24
    2a96:	82 bb       	out	0x12, r24	; 18
    2a98:	08 95       	ret

00002a9a <DIO_vGetPortValue>:
    2a9a:	81 30       	cpi	r24, 0x01	; 1
    2a9c:	51 f0       	breq	.+20     	; 0x2ab2 <DIO_vGetPortValue+0x18>
    2a9e:	81 30       	cpi	r24, 0x01	; 1
    2aa0:	30 f0       	brcs	.+12     	; 0x2aae <DIO_vGetPortValue+0x14>
    2aa2:	82 30       	cpi	r24, 0x02	; 2
    2aa4:	41 f0       	breq	.+16     	; 0x2ab6 <DIO_vGetPortValue+0x1c>
    2aa6:	83 30       	cpi	r24, 0x03	; 3
    2aa8:	41 f0       	breq	.+16     	; 0x2aba <DIO_vGetPortValue+0x20>
    2aaa:	80 e0       	ldi	r24, 0x00	; 0
    2aac:	08 95       	ret
    2aae:	89 b3       	in	r24, 0x19	; 25
    2ab0:	08 95       	ret
    2ab2:	86 b3       	in	r24, 0x16	; 22
    2ab4:	08 95       	ret
    2ab6:	83 b3       	in	r24, 0x13	; 19
    2ab8:	08 95       	ret
    2aba:	80 b3       	in	r24, 0x10	; 16
    2abc:	08 95       	ret

00002abe <DIO_voidWriteHighNibbles>:
    2abe:	62 95       	swap	r22
    2ac0:	60 7f       	andi	r22, 0xF0	; 240
    2ac2:	81 30       	cpi	r24, 0x01	; 1
    2ac4:	71 f0       	breq	.+28     	; 0x2ae2 <DIO_voidWriteHighNibbles+0x24>
    2ac6:	81 30       	cpi	r24, 0x01	; 1
    2ac8:	28 f0       	brcs	.+10     	; 0x2ad4 <DIO_voidWriteHighNibbles+0x16>
    2aca:	82 30       	cpi	r24, 0x02	; 2
    2acc:	89 f0       	breq	.+34     	; 0x2af0 <DIO_voidWriteHighNibbles+0x32>
    2ace:	83 30       	cpi	r24, 0x03	; 3
    2ad0:	e1 f4       	brne	.+56     	; 0x2b0a <DIO_voidWriteHighNibbles+0x4c>
    2ad2:	15 c0       	rjmp	.+42     	; 0x2afe <DIO_voidWriteHighNibbles+0x40>
    2ad4:	8b b3       	in	r24, 0x1b	; 27
    2ad6:	8f 70       	andi	r24, 0x0F	; 15
    2ad8:	8b bb       	out	0x1b, r24	; 27
    2ada:	8b b3       	in	r24, 0x1b	; 27
    2adc:	68 2b       	or	r22, r24
    2ade:	6b bb       	out	0x1b, r22	; 27
    2ae0:	08 95       	ret
    2ae2:	88 b3       	in	r24, 0x18	; 24
    2ae4:	8f 70       	andi	r24, 0x0F	; 15
    2ae6:	88 bb       	out	0x18, r24	; 24
    2ae8:	88 b3       	in	r24, 0x18	; 24
    2aea:	68 2b       	or	r22, r24
    2aec:	68 bb       	out	0x18, r22	; 24
    2aee:	08 95       	ret
    2af0:	85 b3       	in	r24, 0x15	; 21
    2af2:	8f 70       	andi	r24, 0x0F	; 15
    2af4:	85 bb       	out	0x15, r24	; 21
    2af6:	85 b3       	in	r24, 0x15	; 21
    2af8:	68 2b       	or	r22, r24
    2afa:	65 bb       	out	0x15, r22	; 21
    2afc:	08 95       	ret
    2afe:	82 b3       	in	r24, 0x12	; 18
    2b00:	8f 70       	andi	r24, 0x0F	; 15
    2b02:	82 bb       	out	0x12, r24	; 18
    2b04:	82 b3       	in	r24, 0x12	; 18
    2b06:	68 2b       	or	r22, r24
    2b08:	62 bb       	out	0x12, r22	; 18
    2b0a:	08 95       	ret

00002b0c <DIO_voidWriteLowNibbles>:
    2b0c:	6f 70       	andi	r22, 0x0F	; 15
    2b0e:	81 30       	cpi	r24, 0x01	; 1
    2b10:	71 f0       	breq	.+28     	; 0x2b2e <DIO_voidWriteLowNibbles+0x22>
    2b12:	81 30       	cpi	r24, 0x01	; 1
    2b14:	28 f0       	brcs	.+10     	; 0x2b20 <DIO_voidWriteLowNibbles+0x14>
    2b16:	82 30       	cpi	r24, 0x02	; 2
    2b18:	89 f0       	breq	.+34     	; 0x2b3c <DIO_voidWriteLowNibbles+0x30>
    2b1a:	83 30       	cpi	r24, 0x03	; 3
    2b1c:	e1 f4       	brne	.+56     	; 0x2b56 <DIO_voidWriteLowNibbles+0x4a>
    2b1e:	15 c0       	rjmp	.+42     	; 0x2b4a <DIO_voidWriteLowNibbles+0x3e>
    2b20:	8b b3       	in	r24, 0x1b	; 27
    2b22:	80 7f       	andi	r24, 0xF0	; 240
    2b24:	8b bb       	out	0x1b, r24	; 27
    2b26:	8b b3       	in	r24, 0x1b	; 27
    2b28:	68 2b       	or	r22, r24
    2b2a:	6b bb       	out	0x1b, r22	; 27
    2b2c:	08 95       	ret
    2b2e:	88 b3       	in	r24, 0x18	; 24
    2b30:	80 7f       	andi	r24, 0xF0	; 240
    2b32:	88 bb       	out	0x18, r24	; 24
    2b34:	88 b3       	in	r24, 0x18	; 24
    2b36:	68 2b       	or	r22, r24
    2b38:	68 bb       	out	0x18, r22	; 24
    2b3a:	08 95       	ret
    2b3c:	85 b3       	in	r24, 0x15	; 21
    2b3e:	80 7f       	andi	r24, 0xF0	; 240
    2b40:	85 bb       	out	0x15, r24	; 21
    2b42:	85 b3       	in	r24, 0x15	; 21
    2b44:	68 2b       	or	r22, r24
    2b46:	65 bb       	out	0x15, r22	; 21
    2b48:	08 95       	ret
    2b4a:	82 b3       	in	r24, 0x12	; 18
    2b4c:	80 7f       	andi	r24, 0xF0	; 240
    2b4e:	82 bb       	out	0x12, r24	; 18
    2b50:	82 b3       	in	r24, 0x12	; 18
    2b52:	68 2b       	or	r22, r24
    2b54:	62 bb       	out	0x12, r22	; 18
    2b56:	08 95       	ret

00002b58 <DIO_vConnectPullup>:
    2b58:	81 30       	cpi	r24, 0x01	; 1
    2b5a:	49 f1       	breq	.+82     	; 0x2bae <DIO_vConnectPullup+0x56>
    2b5c:	81 30       	cpi	r24, 0x01	; 1
    2b5e:	38 f0       	brcs	.+14     	; 0x2b6e <DIO_vConnectPullup+0x16>
    2b60:	82 30       	cpi	r24, 0x02	; 2
    2b62:	09 f4       	brne	.+2      	; 0x2b66 <DIO_vConnectPullup+0xe>
    2b64:	44 c0       	rjmp	.+136    	; 0x2bee <DIO_vConnectPullup+0x96>
    2b66:	83 30       	cpi	r24, 0x03	; 3
    2b68:	09 f0       	breq	.+2      	; 0x2b6c <DIO_vConnectPullup+0x14>
    2b6a:	81 c0       	rjmp	.+258    	; 0x2c6e <DIO_vConnectPullup+0x116>
    2b6c:	60 c0       	rjmp	.+192    	; 0x2c2e <DIO_vConnectPullup+0xd6>
    2b6e:	41 30       	cpi	r20, 0x01	; 1
    2b70:	91 f4       	brne	.+36     	; 0x2b96 <DIO_vConnectPullup+0x3e>
    2b72:	80 b7       	in	r24, 0x30	; 48
    2b74:	8b 7f       	andi	r24, 0xFB	; 251
    2b76:	80 bf       	out	0x30, r24	; 48
    2b78:	3a b3       	in	r19, 0x1a	; 26
    2b7a:	81 e0       	ldi	r24, 0x01	; 1
    2b7c:	90 e0       	ldi	r25, 0x00	; 0
    2b7e:	02 c0       	rjmp	.+4      	; 0x2b84 <DIO_vConnectPullup+0x2c>
    2b80:	88 0f       	add	r24, r24
    2b82:	99 1f       	adc	r25, r25
    2b84:	6a 95       	dec	r22
    2b86:	e2 f7       	brpl	.-8      	; 0x2b80 <DIO_vConnectPullup+0x28>
    2b88:	28 2f       	mov	r18, r24
    2b8a:	20 95       	com	r18
    2b8c:	23 23       	and	r18, r19
    2b8e:	2a bb       	out	0x1a, r18	; 26
    2b90:	2b b3       	in	r18, 0x1b	; 27
    2b92:	82 2b       	or	r24, r18
    2b94:	0a c0       	rjmp	.+20     	; 0x2baa <DIO_vConnectPullup+0x52>
    2b96:	2b b3       	in	r18, 0x1b	; 27
    2b98:	81 e0       	ldi	r24, 0x01	; 1
    2b9a:	90 e0       	ldi	r25, 0x00	; 0
    2b9c:	02 c0       	rjmp	.+4      	; 0x2ba2 <DIO_vConnectPullup+0x4a>
    2b9e:	88 0f       	add	r24, r24
    2ba0:	99 1f       	adc	r25, r25
    2ba2:	6a 95       	dec	r22
    2ba4:	e2 f7       	brpl	.-8      	; 0x2b9e <DIO_vConnectPullup+0x46>
    2ba6:	80 95       	com	r24
    2ba8:	82 23       	and	r24, r18
    2baa:	8b bb       	out	0x1b, r24	; 27
    2bac:	08 95       	ret
    2bae:	41 30       	cpi	r20, 0x01	; 1
    2bb0:	91 f4       	brne	.+36     	; 0x2bd6 <DIO_vConnectPullup+0x7e>
    2bb2:	80 b7       	in	r24, 0x30	; 48
    2bb4:	8b 7f       	andi	r24, 0xFB	; 251
    2bb6:	80 bf       	out	0x30, r24	; 48
    2bb8:	37 b3       	in	r19, 0x17	; 23
    2bba:	81 e0       	ldi	r24, 0x01	; 1
    2bbc:	90 e0       	ldi	r25, 0x00	; 0
    2bbe:	02 c0       	rjmp	.+4      	; 0x2bc4 <DIO_vConnectPullup+0x6c>
    2bc0:	88 0f       	add	r24, r24
    2bc2:	99 1f       	adc	r25, r25
    2bc4:	6a 95       	dec	r22
    2bc6:	e2 f7       	brpl	.-8      	; 0x2bc0 <DIO_vConnectPullup+0x68>
    2bc8:	28 2f       	mov	r18, r24
    2bca:	20 95       	com	r18
    2bcc:	23 23       	and	r18, r19
    2bce:	27 bb       	out	0x17, r18	; 23
    2bd0:	28 b3       	in	r18, 0x18	; 24
    2bd2:	82 2b       	or	r24, r18
    2bd4:	0a c0       	rjmp	.+20     	; 0x2bea <DIO_vConnectPullup+0x92>
    2bd6:	28 b3       	in	r18, 0x18	; 24
    2bd8:	81 e0       	ldi	r24, 0x01	; 1
    2bda:	90 e0       	ldi	r25, 0x00	; 0
    2bdc:	02 c0       	rjmp	.+4      	; 0x2be2 <DIO_vConnectPullup+0x8a>
    2bde:	88 0f       	add	r24, r24
    2be0:	99 1f       	adc	r25, r25
    2be2:	6a 95       	dec	r22
    2be4:	e2 f7       	brpl	.-8      	; 0x2bde <DIO_vConnectPullup+0x86>
    2be6:	80 95       	com	r24
    2be8:	82 23       	and	r24, r18
    2bea:	88 bb       	out	0x18, r24	; 24
    2bec:	08 95       	ret
    2bee:	41 30       	cpi	r20, 0x01	; 1
    2bf0:	91 f4       	brne	.+36     	; 0x2c16 <DIO_vConnectPullup+0xbe>
    2bf2:	80 b7       	in	r24, 0x30	; 48
    2bf4:	8b 7f       	andi	r24, 0xFB	; 251
    2bf6:	80 bf       	out	0x30, r24	; 48
    2bf8:	34 b3       	in	r19, 0x14	; 20
    2bfa:	81 e0       	ldi	r24, 0x01	; 1
    2bfc:	90 e0       	ldi	r25, 0x00	; 0
    2bfe:	02 c0       	rjmp	.+4      	; 0x2c04 <DIO_vConnectPullup+0xac>
    2c00:	88 0f       	add	r24, r24
    2c02:	99 1f       	adc	r25, r25
    2c04:	6a 95       	dec	r22
    2c06:	e2 f7       	brpl	.-8      	; 0x2c00 <DIO_vConnectPullup+0xa8>
    2c08:	28 2f       	mov	r18, r24
    2c0a:	20 95       	com	r18
    2c0c:	23 23       	and	r18, r19
    2c0e:	24 bb       	out	0x14, r18	; 20
    2c10:	25 b3       	in	r18, 0x15	; 21
    2c12:	82 2b       	or	r24, r18
    2c14:	0a c0       	rjmp	.+20     	; 0x2c2a <DIO_vConnectPullup+0xd2>
    2c16:	25 b3       	in	r18, 0x15	; 21
    2c18:	81 e0       	ldi	r24, 0x01	; 1
    2c1a:	90 e0       	ldi	r25, 0x00	; 0
    2c1c:	02 c0       	rjmp	.+4      	; 0x2c22 <DIO_vConnectPullup+0xca>
    2c1e:	88 0f       	add	r24, r24
    2c20:	99 1f       	adc	r25, r25
    2c22:	6a 95       	dec	r22
    2c24:	e2 f7       	brpl	.-8      	; 0x2c1e <DIO_vConnectPullup+0xc6>
    2c26:	80 95       	com	r24
    2c28:	82 23       	and	r24, r18
    2c2a:	85 bb       	out	0x15, r24	; 21
    2c2c:	08 95       	ret
    2c2e:	41 30       	cpi	r20, 0x01	; 1
    2c30:	99 f4       	brne	.+38     	; 0x2c58 <DIO_vConnectPullup+0x100>
    2c32:	80 b7       	in	r24, 0x30	; 48
    2c34:	8b 7f       	andi	r24, 0xFB	; 251
    2c36:	80 bf       	out	0x30, r24	; 48
    2c38:	31 b3       	in	r19, 0x11	; 17
    2c3a:	81 e0       	ldi	r24, 0x01	; 1
    2c3c:	90 e0       	ldi	r25, 0x00	; 0
    2c3e:	02 c0       	rjmp	.+4      	; 0x2c44 <DIO_vConnectPullup+0xec>
    2c40:	88 0f       	add	r24, r24
    2c42:	99 1f       	adc	r25, r25
    2c44:	6a 95       	dec	r22
    2c46:	e2 f7       	brpl	.-8      	; 0x2c40 <DIO_vConnectPullup+0xe8>
    2c48:	28 2f       	mov	r18, r24
    2c4a:	20 95       	com	r18
    2c4c:	23 23       	and	r18, r19
    2c4e:	21 bb       	out	0x11, r18	; 17
    2c50:	22 b3       	in	r18, 0x12	; 18
    2c52:	82 2b       	or	r24, r18
    2c54:	82 bb       	out	0x12, r24	; 18
    2c56:	08 95       	ret
    2c58:	22 b3       	in	r18, 0x12	; 18
    2c5a:	81 e0       	ldi	r24, 0x01	; 1
    2c5c:	90 e0       	ldi	r25, 0x00	; 0
    2c5e:	02 c0       	rjmp	.+4      	; 0x2c64 <DIO_vConnectPullup+0x10c>
    2c60:	88 0f       	add	r24, r24
    2c62:	99 1f       	adc	r25, r25
    2c64:	6a 95       	dec	r22
    2c66:	e2 f7       	brpl	.-8      	; 0x2c60 <DIO_vConnectPullup+0x108>
    2c68:	80 95       	com	r24
    2c6a:	82 23       	and	r24, r18
    2c6c:	82 bb       	out	0x12, r24	; 18
    2c6e:	08 95       	ret

00002c70 <EEROM_VoidSendDataToAddress>:
    2c70:	8e bb       	out	0x1e, r24	; 30
    2c72:	9f bb       	out	0x1f, r25	; 31
    2c74:	6d bb       	out	0x1d, r22	; 29
    2c76:	e2 9a       	sbi	0x1c, 2	; 28
    2c78:	e1 9a       	sbi	0x1c, 1	; 28
    2c7a:	e1 99       	sbic	0x1c, 1	; 28
    2c7c:	fe cf       	rjmp	.-4      	; 0x2c7a <EEROM_VoidSendDataToAddress+0xa>
    2c7e:	08 95       	ret

00002c80 <EEROM_VoidReadDataFromAddress>:
    2c80:	8e bb       	out	0x1e, r24	; 30
    2c82:	9f bb       	out	0x1f, r25	; 31
    2c84:	e0 9a       	sbi	0x1c, 0	; 28
    2c86:	8d b3       	in	r24, 0x1d	; 29
    2c88:	08 95       	ret

00002c8a <KPD_u8GetPressed>:
    2c8a:	cf 92       	push	r12
    2c8c:	df 92       	push	r13
    2c8e:	ff 92       	push	r15
    2c90:	0f 93       	push	r16
    2c92:	1f 93       	push	r17
    2c94:	cf 93       	push	r28
    2c96:	df 93       	push	r29
    2c98:	ff 24       	eor	r15, r15
    2c9a:	fa 94       	dec	r15
    2c9c:	c0 e0       	ldi	r28, 0x00	; 0
    2c9e:	d0 e0       	ldi	r29, 0x00	; 0
    2ca0:	98 ec       	ldi	r25, 0xC8	; 200
    2ca2:	c9 2e       	mov	r12, r25
    2ca4:	d1 2c       	mov	r13, r1
    2ca6:	ce 01       	movw	r24, r28
    2ca8:	8c 5f       	subi	r24, 0xFC	; 252
    2caa:	08 2f       	mov	r16, r24
    2cac:	81 e0       	ldi	r24, 0x01	; 1
    2cae:	60 2f       	mov	r22, r16
    2cb0:	40 e0       	ldi	r20, 0x00	; 0
    2cb2:	0e 94 38 14 	call	0x2870	; 0x2870 <DIO_vSetPinValue>
    2cb6:	81 e0       	ldi	r24, 0x01	; 1
    2cb8:	60 e0       	ldi	r22, 0x00	; 0
    2cba:	0e 94 e0 14 	call	0x29c0	; 0x29c0 <DIO_u8GetPinValue>
    2cbe:	88 23       	and	r24, r24
    2cc0:	11 f4       	brne	.+4      	; 0x2cc6 <KPD_u8GetPressed+0x3c>
    2cc2:	10 e0       	ldi	r17, 0x00	; 0
    2cc4:	17 c0       	rjmp	.+46     	; 0x2cf4 <KPD_u8GetPressed+0x6a>
    2cc6:	81 e0       	ldi	r24, 0x01	; 1
    2cc8:	61 e0       	ldi	r22, 0x01	; 1
    2cca:	0e 94 e0 14 	call	0x29c0	; 0x29c0 <DIO_u8GetPinValue>
    2cce:	88 23       	and	r24, r24
    2cd0:	11 f4       	brne	.+4      	; 0x2cd6 <KPD_u8GetPressed+0x4c>
    2cd2:	11 e0       	ldi	r17, 0x01	; 1
    2cd4:	0f c0       	rjmp	.+30     	; 0x2cf4 <KPD_u8GetPressed+0x6a>
    2cd6:	81 e0       	ldi	r24, 0x01	; 1
    2cd8:	62 e0       	ldi	r22, 0x02	; 2
    2cda:	0e 94 e0 14 	call	0x29c0	; 0x29c0 <DIO_u8GetPinValue>
    2cde:	88 23       	and	r24, r24
    2ce0:	11 f4       	brne	.+4      	; 0x2ce6 <KPD_u8GetPressed+0x5c>
    2ce2:	12 e0       	ldi	r17, 0x02	; 2
    2ce4:	07 c0       	rjmp	.+14     	; 0x2cf4 <KPD_u8GetPressed+0x6a>
    2ce6:	81 e0       	ldi	r24, 0x01	; 1
    2ce8:	63 e0       	ldi	r22, 0x03	; 3
    2cea:	0e 94 e0 14 	call	0x29c0	; 0x29c0 <DIO_u8GetPinValue>
    2cee:	88 23       	and	r24, r24
    2cf0:	f9 f4       	brne	.+62     	; 0x2d30 <KPD_u8GetPressed+0xa6>
    2cf2:	13 e0       	ldi	r17, 0x03	; 3
    2cf4:	84 ef       	ldi	r24, 0xF4	; 244
    2cf6:	91 e0       	ldi	r25, 0x01	; 1
    2cf8:	f6 01       	movw	r30, r12
    2cfa:	31 97       	sbiw	r30, 0x01	; 1
    2cfc:	f1 f7       	brne	.-4      	; 0x2cfa <KPD_u8GetPressed+0x70>
    2cfe:	01 97       	sbiw	r24, 0x01	; 1
    2d00:	d9 f7       	brne	.-10     	; 0x2cf8 <KPD_u8GetPressed+0x6e>
    2d02:	81 e0       	ldi	r24, 0x01	; 1
    2d04:	61 2f       	mov	r22, r17
    2d06:	0e 94 e0 14 	call	0x29c0	; 0x29c0 <DIO_u8GetPinValue>
    2d0a:	88 23       	and	r24, r24
    2d0c:	59 f4       	brne	.+22     	; 0x2d24 <KPD_u8GetPressed+0x9a>
    2d0e:	e1 2f       	mov	r30, r17
    2d10:	f0 e0       	ldi	r31, 0x00	; 0
    2d12:	ee 0f       	add	r30, r30
    2d14:	ff 1f       	adc	r31, r31
    2d16:	ee 0f       	add	r30, r30
    2d18:	ff 1f       	adc	r31, r31
    2d1a:	ec 0f       	add	r30, r28
    2d1c:	fd 1f       	adc	r31, r29
    2d1e:	e2 57       	subi	r30, 0x72	; 114
    2d20:	fd 4f       	sbci	r31, 0xFD	; 253
    2d22:	f0 80       	ld	r15, Z
    2d24:	81 e0       	ldi	r24, 0x01	; 1
    2d26:	61 2f       	mov	r22, r17
    2d28:	0e 94 e0 14 	call	0x29c0	; 0x29c0 <DIO_u8GetPinValue>
    2d2c:	88 23       	and	r24, r24
    2d2e:	d1 f3       	breq	.-12     	; 0x2d24 <KPD_u8GetPressed+0x9a>
    2d30:	81 e0       	ldi	r24, 0x01	; 1
    2d32:	60 2f       	mov	r22, r16
    2d34:	41 e0       	ldi	r20, 0x01	; 1
    2d36:	0e 94 38 14 	call	0x2870	; 0x2870 <DIO_vSetPinValue>
    2d3a:	21 96       	adiw	r28, 0x01	; 1
    2d3c:	c4 30       	cpi	r28, 0x04	; 4
    2d3e:	d1 05       	cpc	r29, r1
    2d40:	09 f0       	breq	.+2      	; 0x2d44 <KPD_u8GetPressed+0xba>
    2d42:	b1 cf       	rjmp	.-158    	; 0x2ca6 <KPD_u8GetPressed+0x1c>
    2d44:	8f 2d       	mov	r24, r15
    2d46:	df 91       	pop	r29
    2d48:	cf 91       	pop	r28
    2d4a:	1f 91       	pop	r17
    2d4c:	0f 91       	pop	r16
    2d4e:	ff 90       	pop	r15
    2d50:	df 90       	pop	r13
    2d52:	cf 90       	pop	r12
    2d54:	08 95       	ret

00002d56 <KPD_Init>:
    2d56:	81 e0       	ldi	r24, 0x01	; 1
    2d58:	60 e0       	ldi	r22, 0x00	; 0
    2d5a:	41 e0       	ldi	r20, 0x01	; 1
    2d5c:	0e 94 ac 15 	call	0x2b58	; 0x2b58 <DIO_vConnectPullup>
    2d60:	81 e0       	ldi	r24, 0x01	; 1
    2d62:	61 e0       	ldi	r22, 0x01	; 1
    2d64:	41 e0       	ldi	r20, 0x01	; 1
    2d66:	0e 94 ac 15 	call	0x2b58	; 0x2b58 <DIO_vConnectPullup>
    2d6a:	81 e0       	ldi	r24, 0x01	; 1
    2d6c:	62 e0       	ldi	r22, 0x02	; 2
    2d6e:	41 e0       	ldi	r20, 0x01	; 1
    2d70:	0e 94 ac 15 	call	0x2b58	; 0x2b58 <DIO_vConnectPullup>
    2d74:	81 e0       	ldi	r24, 0x01	; 1
    2d76:	63 e0       	ldi	r22, 0x03	; 3
    2d78:	41 e0       	ldi	r20, 0x01	; 1
    2d7a:	0e 94 ac 15 	call	0x2b58	; 0x2b58 <DIO_vConnectPullup>
    2d7e:	81 e0       	ldi	r24, 0x01	; 1
    2d80:	64 e0       	ldi	r22, 0x04	; 4
    2d82:	41 e0       	ldi	r20, 0x01	; 1
    2d84:	0e 94 c5 13 	call	0x278a	; 0x278a <DIO_vSetPinDirection>
    2d88:	81 e0       	ldi	r24, 0x01	; 1
    2d8a:	65 e0       	ldi	r22, 0x05	; 5
    2d8c:	41 e0       	ldi	r20, 0x01	; 1
    2d8e:	0e 94 c5 13 	call	0x278a	; 0x278a <DIO_vSetPinDirection>
    2d92:	81 e0       	ldi	r24, 0x01	; 1
    2d94:	66 e0       	ldi	r22, 0x06	; 6
    2d96:	41 e0       	ldi	r20, 0x01	; 1
    2d98:	0e 94 c5 13 	call	0x278a	; 0x278a <DIO_vSetPinDirection>
    2d9c:	81 e0       	ldi	r24, 0x01	; 1
    2d9e:	67 e0       	ldi	r22, 0x07	; 7
    2da0:	41 e0       	ldi	r20, 0x01	; 1
    2da2:	0e 94 c5 13 	call	0x278a	; 0x278a <DIO_vSetPinDirection>
    2da6:	81 e0       	ldi	r24, 0x01	; 1
    2da8:	64 e0       	ldi	r22, 0x04	; 4
    2daa:	41 e0       	ldi	r20, 0x01	; 1
    2dac:	0e 94 38 14 	call	0x2870	; 0x2870 <DIO_vSetPinValue>
    2db0:	81 e0       	ldi	r24, 0x01	; 1
    2db2:	65 e0       	ldi	r22, 0x05	; 5
    2db4:	41 e0       	ldi	r20, 0x01	; 1
    2db6:	0e 94 38 14 	call	0x2870	; 0x2870 <DIO_vSetPinValue>
    2dba:	81 e0       	ldi	r24, 0x01	; 1
    2dbc:	66 e0       	ldi	r22, 0x06	; 6
    2dbe:	41 e0       	ldi	r20, 0x01	; 1
    2dc0:	0e 94 38 14 	call	0x2870	; 0x2870 <DIO_vSetPinValue>
    2dc4:	81 e0       	ldi	r24, 0x01	; 1
    2dc6:	67 e0       	ldi	r22, 0x07	; 7
    2dc8:	41 e0       	ldi	r20, 0x01	; 1
    2dca:	0e 94 38 14 	call	0x2870	; 0x2870 <DIO_vSetPinValue>
    2dce:	08 95       	ret

00002dd0 <LCD_vSendFEdge>:
    2dd0:	0f 93       	push	r16
    2dd2:	1f 93       	push	r17
    2dd4:	82 e0       	ldi	r24, 0x02	; 2
    2dd6:	62 e0       	ldi	r22, 0x02	; 2
    2dd8:	41 e0       	ldi	r20, 0x01	; 1
    2dda:	0e 94 38 14 	call	0x2870	; 0x2870 <DIO_vSetPinValue>
    2dde:	00 ed       	ldi	r16, 0xD0	; 208
    2de0:	17 e0       	ldi	r17, 0x07	; 7
    2de2:	c8 01       	movw	r24, r16
    2de4:	01 97       	sbiw	r24, 0x01	; 1
    2de6:	f1 f7       	brne	.-4      	; 0x2de4 <LCD_vSendFEdge+0x14>
    2de8:	82 e0       	ldi	r24, 0x02	; 2
    2dea:	62 e0       	ldi	r22, 0x02	; 2
    2dec:	40 e0       	ldi	r20, 0x00	; 0
    2dee:	0e 94 38 14 	call	0x2870	; 0x2870 <DIO_vSetPinValue>
    2df2:	c8 01       	movw	r24, r16
    2df4:	01 97       	sbiw	r24, 0x01	; 1
    2df6:	f1 f7       	brne	.-4      	; 0x2df4 <LCD_vSendFEdge+0x24>
    2df8:	1f 91       	pop	r17
    2dfa:	0f 91       	pop	r16
    2dfc:	08 95       	ret

00002dfe <LCD_vSendCommand>:
    2dfe:	1f 93       	push	r17
    2e00:	18 2f       	mov	r17, r24
    2e02:	82 e0       	ldi	r24, 0x02	; 2
    2e04:	60 e0       	ldi	r22, 0x00	; 0
    2e06:	40 e0       	ldi	r20, 0x00	; 0
    2e08:	0e 94 38 14 	call	0x2870	; 0x2870 <DIO_vSetPinValue>
    2e0c:	82 e0       	ldi	r24, 0x02	; 2
    2e0e:	61 e0       	ldi	r22, 0x01	; 1
    2e10:	40 e0       	ldi	r20, 0x00	; 0
    2e12:	0e 94 38 14 	call	0x2870	; 0x2870 <DIO_vSetPinValue>
    2e16:	61 2f       	mov	r22, r17
    2e18:	62 95       	swap	r22
    2e1a:	6f 70       	andi	r22, 0x0F	; 15
    2e1c:	82 e0       	ldi	r24, 0x02	; 2
    2e1e:	0e 94 5f 15 	call	0x2abe	; 0x2abe <DIO_voidWriteHighNibbles>
    2e22:	0e 94 e8 16 	call	0x2dd0	; 0x2dd0 <LCD_vSendFEdge>
    2e26:	82 e0       	ldi	r24, 0x02	; 2
    2e28:	61 2f       	mov	r22, r17
    2e2a:	0e 94 5f 15 	call	0x2abe	; 0x2abe <DIO_voidWriteHighNibbles>
    2e2e:	0e 94 e8 16 	call	0x2dd0	; 0x2dd0 <LCD_vSendFEdge>
    2e32:	80 ed       	ldi	r24, 0xD0	; 208
    2e34:	97 e0       	ldi	r25, 0x07	; 7
    2e36:	01 97       	sbiw	r24, 0x01	; 1
    2e38:	f1 f7       	brne	.-4      	; 0x2e36 <LCD_vSendCommand+0x38>
    2e3a:	1f 91       	pop	r17
    2e3c:	08 95       	ret

00002e3e <LCD_vClearScreen>:
    2e3e:	81 e0       	ldi	r24, 0x01	; 1
    2e40:	0e 94 ff 16 	call	0x2dfe	; 0x2dfe <LCD_vSendCommand>
    2e44:	80 e2       	ldi	r24, 0x20	; 32
    2e46:	9e e4       	ldi	r25, 0x4E	; 78
    2e48:	01 97       	sbiw	r24, 0x01	; 1
    2e4a:	f1 f7       	brne	.-4      	; 0x2e48 <LCD_vClearScreen+0xa>
    2e4c:	08 95       	ret

00002e4e <LCD_vSetPosition>:
    2e4e:	98 2f       	mov	r25, r24
    2e50:	81 50       	subi	r24, 0x01	; 1
    2e52:	84 30       	cpi	r24, 0x04	; 4
    2e54:	c0 f4       	brcc	.+48     	; 0x2e86 <LCD_vSetPosition+0x38>
    2e56:	65 31       	cpi	r22, 0x15	; 21
    2e58:	b0 f4       	brcc	.+44     	; 0x2e86 <LCD_vSetPosition+0x38>
    2e5a:	66 23       	and	r22, r22
    2e5c:	a1 f0       	breq	.+40     	; 0x2e86 <LCD_vSetPosition+0x38>
    2e5e:	91 30       	cpi	r25, 0x01	; 1
    2e60:	19 f4       	brne	.+6      	; 0x2e68 <LCD_vSetPosition+0x1a>
    2e62:	86 2f       	mov	r24, r22
    2e64:	81 58       	subi	r24, 0x81	; 129
    2e66:	10 c0       	rjmp	.+32     	; 0x2e88 <LCD_vSetPosition+0x3a>
    2e68:	92 30       	cpi	r25, 0x02	; 2
    2e6a:	19 f4       	brne	.+6      	; 0x2e72 <LCD_vSetPosition+0x24>
    2e6c:	86 2f       	mov	r24, r22
    2e6e:	81 54       	subi	r24, 0x41	; 65
    2e70:	0b c0       	rjmp	.+22     	; 0x2e88 <LCD_vSetPosition+0x3a>
    2e72:	93 30       	cpi	r25, 0x03	; 3
    2e74:	19 f4       	brne	.+6      	; 0x2e7c <LCD_vSetPosition+0x2e>
    2e76:	86 2f       	mov	r24, r22
    2e78:	81 57       	subi	r24, 0x71	; 113
    2e7a:	06 c0       	rjmp	.+12     	; 0x2e88 <LCD_vSetPosition+0x3a>
    2e7c:	94 30       	cpi	r25, 0x04	; 4
    2e7e:	21 f4       	brne	.+8      	; 0x2e88 <LCD_vSetPosition+0x3a>
    2e80:	86 2f       	mov	r24, r22
    2e82:	81 53       	subi	r24, 0x31	; 49
    2e84:	01 c0       	rjmp	.+2      	; 0x2e88 <LCD_vSetPosition+0x3a>
    2e86:	80 e8       	ldi	r24, 0x80	; 128
    2e88:	0e 94 ff 16 	call	0x2dfe	; 0x2dfe <LCD_vSendCommand>
    2e8c:	80 ed       	ldi	r24, 0xD0	; 208
    2e8e:	97 e0       	ldi	r25, 0x07	; 7
    2e90:	01 97       	sbiw	r24, 0x01	; 1
    2e92:	f1 f7       	brne	.-4      	; 0x2e90 <LCD_vSetPosition+0x42>
    2e94:	08 95       	ret

00002e96 <LCD_vSendData>:
    2e96:	1f 93       	push	r17
    2e98:	18 2f       	mov	r17, r24
    2e9a:	82 e0       	ldi	r24, 0x02	; 2
    2e9c:	60 e0       	ldi	r22, 0x00	; 0
    2e9e:	41 e0       	ldi	r20, 0x01	; 1
    2ea0:	0e 94 38 14 	call	0x2870	; 0x2870 <DIO_vSetPinValue>
    2ea4:	82 e0       	ldi	r24, 0x02	; 2
    2ea6:	61 e0       	ldi	r22, 0x01	; 1
    2ea8:	40 e0       	ldi	r20, 0x00	; 0
    2eaa:	0e 94 38 14 	call	0x2870	; 0x2870 <DIO_vSetPinValue>
    2eae:	61 2f       	mov	r22, r17
    2eb0:	62 95       	swap	r22
    2eb2:	6f 70       	andi	r22, 0x0F	; 15
    2eb4:	82 e0       	ldi	r24, 0x02	; 2
    2eb6:	0e 94 5f 15 	call	0x2abe	; 0x2abe <DIO_voidWriteHighNibbles>
    2eba:	0e 94 e8 16 	call	0x2dd0	; 0x2dd0 <LCD_vSendFEdge>
    2ebe:	82 e0       	ldi	r24, 0x02	; 2
    2ec0:	61 2f       	mov	r22, r17
    2ec2:	0e 94 5f 15 	call	0x2abe	; 0x2abe <DIO_voidWriteHighNibbles>
    2ec6:	0e 94 e8 16 	call	0x2dd0	; 0x2dd0 <LCD_vSendFEdge>
    2eca:	80 ed       	ldi	r24, 0xD0	; 208
    2ecc:	97 e0       	ldi	r25, 0x07	; 7
    2ece:	01 97       	sbiw	r24, 0x01	; 1
    2ed0:	f1 f7       	brne	.-4      	; 0x2ece <LCD_vSendData+0x38>
    2ed2:	1f 91       	pop	r17
    2ed4:	08 95       	ret

00002ed6 <LCD_vSendExtraChar>:
    2ed6:	0f 93       	push	r16
    2ed8:	1f 93       	push	r17
    2eda:	cf 93       	push	r28
    2edc:	df 93       	push	r29
    2ede:	18 2f       	mov	r17, r24
    2ee0:	06 2f       	mov	r16, r22
    2ee2:	80 e4       	ldi	r24, 0x40	; 64
    2ee4:	0e 94 ff 16 	call	0x2dfe	; 0x2dfe <LCD_vSendCommand>
    2ee8:	ce e9       	ldi	r28, 0x9E	; 158
    2eea:	d2 e0       	ldi	r29, 0x02	; 2
    2eec:	89 91       	ld	r24, Y+
    2eee:	0e 94 4b 17 	call	0x2e96	; 0x2e96 <LCD_vSendData>
    2ef2:	82 e0       	ldi	r24, 0x02	; 2
    2ef4:	ce 3d       	cpi	r28, 0xDE	; 222
    2ef6:	d8 07       	cpc	r29, r24
    2ef8:	c9 f7       	brne	.-14     	; 0x2eec <LCD_vSendExtraChar+0x16>
    2efa:	81 2f       	mov	r24, r17
    2efc:	60 2f       	mov	r22, r16
    2efe:	0e 94 27 17 	call	0x2e4e	; 0x2e4e <LCD_vSetPosition>
    2f02:	10 e0       	ldi	r17, 0x00	; 0
    2f04:	81 2f       	mov	r24, r17
    2f06:	0e 94 4b 17 	call	0x2e96	; 0x2e96 <LCD_vSendData>
    2f0a:	1f 5f       	subi	r17, 0xFF	; 255
    2f0c:	18 30       	cpi	r17, 0x08	; 8
    2f0e:	d1 f7       	brne	.-12     	; 0x2f04 <LCD_vSendExtraChar+0x2e>
    2f10:	df 91       	pop	r29
    2f12:	cf 91       	pop	r28
    2f14:	1f 91       	pop	r17
    2f16:	0f 91       	pop	r16
    2f18:	08 95       	ret

00002f1a <LCD_vSendNumber>:
    2f1a:	2f 92       	push	r2
    2f1c:	3f 92       	push	r3
    2f1e:	4f 92       	push	r4
    2f20:	5f 92       	push	r5
    2f22:	6f 92       	push	r6
    2f24:	7f 92       	push	r7
    2f26:	8f 92       	push	r8
    2f28:	9f 92       	push	r9
    2f2a:	af 92       	push	r10
    2f2c:	bf 92       	push	r11
    2f2e:	cf 92       	push	r12
    2f30:	df 92       	push	r13
    2f32:	ef 92       	push	r14
    2f34:	ff 92       	push	r15
    2f36:	0f 93       	push	r16
    2f38:	1f 93       	push	r17
    2f3a:	df 93       	push	r29
    2f3c:	cf 93       	push	r28
    2f3e:	cd b7       	in	r28, 0x3d	; 61
    2f40:	de b7       	in	r29, 0x3e	; 62
    2f42:	29 97       	sbiw	r28, 0x09	; 9
    2f44:	0f b6       	in	r0, 0x3f	; 63
    2f46:	f8 94       	cli
    2f48:	de bf       	out	0x3e, r29	; 62
    2f4a:	0f be       	out	0x3f, r0	; 63
    2f4c:	cd bf       	out	0x3d, r28	; 61
    2f4e:	2a 83       	std	Y+2, r18	; 0x02
    2f50:	3b 83       	std	Y+3, r19	; 0x03
    2f52:	4c 83       	std	Y+4, r20	; 0x04
    2f54:	5d 83       	std	Y+5, r21	; 0x05
    2f56:	6e 83       	std	Y+6, r22	; 0x06
    2f58:	7f 83       	std	Y+7, r23	; 0x07
    2f5a:	88 87       	std	Y+8, r24	; 0x08
    2f5c:	99 87       	std	Y+9, r25	; 0x09
    2f5e:	82 2f       	mov	r24, r18
    2f60:	83 2b       	or	r24, r19
    2f62:	84 2b       	or	r24, r20
    2f64:	85 2b       	or	r24, r21
    2f66:	86 2b       	or	r24, r22
    2f68:	87 2b       	or	r24, r23
    2f6a:	98 85       	ldd	r25, Y+8	; 0x08
    2f6c:	89 2b       	or	r24, r25
    2f6e:	e9 85       	ldd	r30, Y+9	; 0x09
    2f70:	8e 2b       	or	r24, r30
    2f72:	21 f4       	brne	.+8      	; 0x2f7c <LCD_vSendNumber+0x62>
    2f74:	80 e3       	ldi	r24, 0x30	; 48
    2f76:	0e 94 4b 17 	call	0x2e96	; 0x2e96 <LCD_vSendData>
    2f7a:	33 c1       	rjmp	.+614    	; 0x31e2 <LCD_vSendNumber+0x2c8>
    2f7c:	22 24       	eor	r2, r2
    2f7e:	23 94       	inc	r2
    2f80:	33 24       	eor	r3, r3
    2f82:	44 24       	eor	r4, r4
    2f84:	55 24       	eor	r5, r5
    2f86:	66 24       	eor	r6, r6
    2f88:	77 24       	eor	r7, r7
    2f8a:	88 24       	eor	r8, r8
    2f8c:	99 24       	eor	r9, r9
    2f8e:	91 01       	movw	r18, r2
    2f90:	a2 01       	movw	r20, r4
    2f92:	b3 01       	movw	r22, r6
    2f94:	c4 01       	movw	r24, r8
    2f96:	01 e0       	ldi	r16, 0x01	; 1
    2f98:	0e 94 49 00 	call	0x92	; 0x92 <__ashldi3>
    2f9c:	12 2f       	mov	r17, r18
    2f9e:	f3 2e       	mov	r15, r19
    2fa0:	e4 2e       	mov	r14, r20
    2fa2:	d5 2e       	mov	r13, r21
    2fa4:	c6 2e       	mov	r12, r22
    2fa6:	b7 2e       	mov	r11, r23
    2fa8:	a8 2e       	mov	r10, r24
    2faa:	89 2e       	mov	r8, r25
    2fac:	02 e0       	ldi	r16, 0x02	; 2
    2fae:	0e 94 49 00 	call	0x92	; 0x92 <__ashldi3>
    2fb2:	92 2e       	mov	r9, r18
    2fb4:	91 0e       	add	r9, r17
    2fb6:	21 e0       	ldi	r18, 0x01	; 1
    2fb8:	91 16       	cp	r9, r17
    2fba:	08 f0       	brcs	.+2      	; 0x2fbe <LCD_vSendNumber+0xa4>
    2fbc:	20 e0       	ldi	r18, 0x00	; 0
    2fbe:	3f 0d       	add	r19, r15
    2fc0:	e1 e0       	ldi	r30, 0x01	; 1
    2fc2:	3f 15       	cp	r19, r15
    2fc4:	08 f0       	brcs	.+2      	; 0x2fc8 <LCD_vSendNumber+0xae>
    2fc6:	e0 e0       	ldi	r30, 0x00	; 0
    2fc8:	72 2e       	mov	r7, r18
    2fca:	73 0e       	add	r7, r19
    2fcc:	21 e0       	ldi	r18, 0x01	; 1
    2fce:	73 16       	cp	r7, r19
    2fd0:	08 f0       	brcs	.+2      	; 0x2fd4 <LCD_vSendNumber+0xba>
    2fd2:	20 e0       	ldi	r18, 0x00	; 0
    2fd4:	e2 2b       	or	r30, r18
    2fd6:	4e 0d       	add	r20, r14
    2fd8:	31 e0       	ldi	r19, 0x01	; 1
    2fda:	4e 15       	cp	r20, r14
    2fdc:	08 f0       	brcs	.+2      	; 0x2fe0 <LCD_vSendNumber+0xc6>
    2fde:	30 e0       	ldi	r19, 0x00	; 0
    2fe0:	6e 2e       	mov	r6, r30
    2fe2:	64 0e       	add	r6, r20
    2fe4:	21 e0       	ldi	r18, 0x01	; 1
    2fe6:	64 16       	cp	r6, r20
    2fe8:	08 f0       	brcs	.+2      	; 0x2fec <LCD_vSendNumber+0xd2>
    2fea:	20 e0       	ldi	r18, 0x00	; 0
    2fec:	32 2b       	or	r19, r18
    2fee:	5d 0d       	add	r21, r13
    2ff0:	41 e0       	ldi	r20, 0x01	; 1
    2ff2:	5d 15       	cp	r21, r13
    2ff4:	08 f0       	brcs	.+2      	; 0x2ff8 <LCD_vSendNumber+0xde>
    2ff6:	40 e0       	ldi	r20, 0x00	; 0
    2ff8:	53 2e       	mov	r5, r19
    2ffa:	55 0e       	add	r5, r21
    2ffc:	21 e0       	ldi	r18, 0x01	; 1
    2ffe:	55 16       	cp	r5, r21
    3000:	08 f0       	brcs	.+2      	; 0x3004 <LCD_vSendNumber+0xea>
    3002:	20 e0       	ldi	r18, 0x00	; 0
    3004:	42 2b       	or	r20, r18
    3006:	6c 0d       	add	r22, r12
    3008:	31 e0       	ldi	r19, 0x01	; 1
    300a:	6c 15       	cp	r22, r12
    300c:	08 f0       	brcs	.+2      	; 0x3010 <LCD_vSendNumber+0xf6>
    300e:	30 e0       	ldi	r19, 0x00	; 0
    3010:	44 2e       	mov	r4, r20
    3012:	46 0e       	add	r4, r22
    3014:	21 e0       	ldi	r18, 0x01	; 1
    3016:	46 16       	cp	r4, r22
    3018:	08 f0       	brcs	.+2      	; 0x301c <LCD_vSendNumber+0x102>
    301a:	20 e0       	ldi	r18, 0x00	; 0
    301c:	32 2b       	or	r19, r18
    301e:	7b 0d       	add	r23, r11
    3020:	41 e0       	ldi	r20, 0x01	; 1
    3022:	7b 15       	cp	r23, r11
    3024:	08 f0       	brcs	.+2      	; 0x3028 <LCD_vSendNumber+0x10e>
    3026:	40 e0       	ldi	r20, 0x00	; 0
    3028:	33 2e       	mov	r3, r19
    302a:	37 0e       	add	r3, r23
    302c:	21 e0       	ldi	r18, 0x01	; 1
    302e:	37 16       	cp	r3, r23
    3030:	08 f0       	brcs	.+2      	; 0x3034 <LCD_vSendNumber+0x11a>
    3032:	20 e0       	ldi	r18, 0x00	; 0
    3034:	42 2b       	or	r20, r18
    3036:	8a 0d       	add	r24, r10
    3038:	31 e0       	ldi	r19, 0x01	; 1
    303a:	8a 15       	cp	r24, r10
    303c:	08 f0       	brcs	.+2      	; 0x3040 <LCD_vSendNumber+0x126>
    303e:	30 e0       	ldi	r19, 0x00	; 0
    3040:	24 2e       	mov	r2, r20
    3042:	28 0e       	add	r2, r24
    3044:	21 e0       	ldi	r18, 0x01	; 1
    3046:	28 16       	cp	r2, r24
    3048:	08 f0       	brcs	.+2      	; 0x304c <LCD_vSendNumber+0x132>
    304a:	20 e0       	ldi	r18, 0x00	; 0
    304c:	32 2b       	or	r19, r18
    304e:	98 0d       	add	r25, r8
    3050:	f3 2f       	mov	r31, r19
    3052:	f9 0f       	add	r31, r25
    3054:	f9 83       	std	Y+1, r31	; 0x01
    3056:	2a 81       	ldd	r18, Y+2	; 0x02
    3058:	3b 81       	ldd	r19, Y+3	; 0x03
    305a:	4c 81       	ldd	r20, Y+4	; 0x04
    305c:	5d 81       	ldd	r21, Y+5	; 0x05
    305e:	6e 81       	ldd	r22, Y+6	; 0x06
    3060:	7f 81       	ldd	r23, Y+7	; 0x07
    3062:	88 85       	ldd	r24, Y+8	; 0x08
    3064:	99 85       	ldd	r25, Y+9	; 0x09
    3066:	aa e0       	ldi	r26, 0x0A	; 10
    3068:	aa 2e       	mov	r10, r26
    306a:	bb 24       	eor	r11, r11
    306c:	cc 24       	eor	r12, r12
    306e:	dd 24       	eor	r13, r13
    3070:	ee 24       	eor	r14, r14
    3072:	ff 24       	eor	r15, r15
    3074:	00 e0       	ldi	r16, 0x00	; 0
    3076:	10 e0       	ldi	r17, 0x00	; 0
    3078:	0e 94 69 07 	call	0xed2	; 0xed2 <__umoddi3>
    307c:	12 2f       	mov	r17, r18
    307e:	19 0d       	add	r17, r9
    3080:	f1 e0       	ldi	r31, 0x01	; 1
    3082:	12 17       	cp	r17, r18
    3084:	08 f0       	brcs	.+2      	; 0x3088 <LCD_vSendNumber+0x16e>
    3086:	f0 e0       	ldi	r31, 0x00	; 0
    3088:	23 2f       	mov	r18, r19
    308a:	27 0d       	add	r18, r7
    308c:	e1 e0       	ldi	r30, 0x01	; 1
    308e:	23 17       	cp	r18, r19
    3090:	08 f0       	brcs	.+2      	; 0x3094 <LCD_vSendNumber+0x17a>
    3092:	e0 e0       	ldi	r30, 0x00	; 0
    3094:	bf 2f       	mov	r27, r31
    3096:	b2 0f       	add	r27, r18
    3098:	31 e0       	ldi	r19, 0x01	; 1
    309a:	b2 17       	cp	r27, r18
    309c:	08 f0       	brcs	.+2      	; 0x30a0 <LCD_vSendNumber+0x186>
    309e:	30 e0       	ldi	r19, 0x00	; 0
    30a0:	e3 2b       	or	r30, r19
    30a2:	24 2f       	mov	r18, r20
    30a4:	26 0d       	add	r18, r6
    30a6:	f1 e0       	ldi	r31, 0x01	; 1
    30a8:	24 17       	cp	r18, r20
    30aa:	08 f0       	brcs	.+2      	; 0x30ae <LCD_vSendNumber+0x194>
    30ac:	f0 e0       	ldi	r31, 0x00	; 0
    30ae:	ae 2f       	mov	r26, r30
    30b0:	a2 0f       	add	r26, r18
    30b2:	31 e0       	ldi	r19, 0x01	; 1
    30b4:	a2 17       	cp	r26, r18
    30b6:	08 f0       	brcs	.+2      	; 0x30ba <LCD_vSendNumber+0x1a0>
    30b8:	30 e0       	ldi	r19, 0x00	; 0
    30ba:	f3 2b       	or	r31, r19
    30bc:	25 2f       	mov	r18, r21
    30be:	25 0d       	add	r18, r5
    30c0:	41 e0       	ldi	r20, 0x01	; 1
    30c2:	25 17       	cp	r18, r21
    30c4:	08 f0       	brcs	.+2      	; 0x30c8 <LCD_vSendNumber+0x1ae>
    30c6:	40 e0       	ldi	r20, 0x00	; 0
    30c8:	0f 2f       	mov	r16, r31
    30ca:	02 0f       	add	r16, r18
    30cc:	31 e0       	ldi	r19, 0x01	; 1
    30ce:	02 17       	cp	r16, r18
    30d0:	08 f0       	brcs	.+2      	; 0x30d4 <LCD_vSendNumber+0x1ba>
    30d2:	30 e0       	ldi	r19, 0x00	; 0
    30d4:	43 2b       	or	r20, r19
    30d6:	26 2f       	mov	r18, r22
    30d8:	24 0d       	add	r18, r4
    30da:	51 e0       	ldi	r21, 0x01	; 1
    30dc:	26 17       	cp	r18, r22
    30de:	08 f0       	brcs	.+2      	; 0x30e2 <LCD_vSendNumber+0x1c8>
    30e0:	50 e0       	ldi	r21, 0x00	; 0
    30e2:	64 2f       	mov	r22, r20
    30e4:	62 0f       	add	r22, r18
    30e6:	31 e0       	ldi	r19, 0x01	; 1
    30e8:	62 17       	cp	r22, r18
    30ea:	08 f0       	brcs	.+2      	; 0x30ee <LCD_vSendNumber+0x1d4>
    30ec:	30 e0       	ldi	r19, 0x00	; 0
    30ee:	53 2b       	or	r21, r19
    30f0:	27 2f       	mov	r18, r23
    30f2:	23 0d       	add	r18, r3
    30f4:	41 e0       	ldi	r20, 0x01	; 1
    30f6:	27 17       	cp	r18, r23
    30f8:	08 f0       	brcs	.+2      	; 0x30fc <LCD_vSendNumber+0x1e2>
    30fa:	40 e0       	ldi	r20, 0x00	; 0
    30fc:	52 0f       	add	r21, r18
    30fe:	31 e0       	ldi	r19, 0x01	; 1
    3100:	52 17       	cp	r21, r18
    3102:	08 f0       	brcs	.+2      	; 0x3106 <LCD_vSendNumber+0x1ec>
    3104:	30 e0       	ldi	r19, 0x00	; 0
    3106:	43 2b       	or	r20, r19
    3108:	28 2f       	mov	r18, r24
    310a:	22 0d       	add	r18, r2
    310c:	31 e0       	ldi	r19, 0x01	; 1
    310e:	28 17       	cp	r18, r24
    3110:	08 f0       	brcs	.+2      	; 0x3114 <LCD_vSendNumber+0x1fa>
    3112:	30 e0       	ldi	r19, 0x00	; 0
    3114:	42 0f       	add	r20, r18
    3116:	81 e0       	ldi	r24, 0x01	; 1
    3118:	42 17       	cp	r20, r18
    311a:	08 f0       	brcs	.+2      	; 0x311e <LCD_vSendNumber+0x204>
    311c:	80 e0       	ldi	r24, 0x00	; 0
    311e:	38 2b       	or	r19, r24
    3120:	89 81       	ldd	r24, Y+1	; 0x01
    3122:	89 0f       	add	r24, r25
    3124:	21 2e       	mov	r2, r17
    3126:	3b 2e       	mov	r3, r27
    3128:	4a 2e       	mov	r4, r26
    312a:	50 2e       	mov	r5, r16
    312c:	66 2e       	mov	r6, r22
    312e:	75 2e       	mov	r7, r21
    3130:	84 2e       	mov	r8, r20
    3132:	98 2e       	mov	r9, r24
    3134:	93 0e       	add	r9, r19
    3136:	2a 81       	ldd	r18, Y+2	; 0x02
    3138:	3b 81       	ldd	r19, Y+3	; 0x03
    313a:	4c 81       	ldd	r20, Y+4	; 0x04
    313c:	5d 81       	ldd	r21, Y+5	; 0x05
    313e:	6e 81       	ldd	r22, Y+6	; 0x06
    3140:	7f 81       	ldd	r23, Y+7	; 0x07
    3142:	88 85       	ldd	r24, Y+8	; 0x08
    3144:	99 85       	ldd	r25, Y+9	; 0x09
    3146:	fa e0       	ldi	r31, 0x0A	; 10
    3148:	af 2e       	mov	r10, r31
    314a:	bb 24       	eor	r11, r11
    314c:	cc 24       	eor	r12, r12
    314e:	dd 24       	eor	r13, r13
    3150:	ee 24       	eor	r14, r14
    3152:	ff 24       	eor	r15, r15
    3154:	00 e0       	ldi	r16, 0x00	; 0
    3156:	10 e0       	ldi	r17, 0x00	; 0
    3158:	0e 94 f4 00 	call	0x1e8	; 0x1e8 <__udivdi3>
    315c:	2a 83       	std	Y+2, r18	; 0x02
    315e:	3b 83       	std	Y+3, r19	; 0x03
    3160:	4c 83       	std	Y+4, r20	; 0x04
    3162:	5d 83       	std	Y+5, r21	; 0x05
    3164:	6e 83       	std	Y+6, r22	; 0x06
    3166:	7f 83       	std	Y+7, r23	; 0x07
    3168:	88 87       	std	Y+8, r24	; 0x08
    316a:	99 87       	std	Y+9, r25	; 0x09
    316c:	82 2f       	mov	r24, r18
    316e:	83 2b       	or	r24, r19
    3170:	84 2b       	or	r24, r20
    3172:	85 2b       	or	r24, r21
    3174:	86 2b       	or	r24, r22
    3176:	87 2b       	or	r24, r23
    3178:	98 85       	ldd	r25, Y+8	; 0x08
    317a:	89 2b       	or	r24, r25
    317c:	e9 85       	ldd	r30, Y+9	; 0x09
    317e:	8e 2b       	or	r24, r30
    3180:	09 f0       	breq	.+2      	; 0x3184 <LCD_vSendNumber+0x26a>
    3182:	05 cf       	rjmp	.-502    	; 0x2f8e <LCD_vSendNumber+0x74>
    3184:	1d c0       	rjmp	.+58     	; 0x31c0 <LCD_vSendNumber+0x2a6>
    3186:	91 01       	movw	r18, r2
    3188:	a2 01       	movw	r20, r4
    318a:	b3 01       	movw	r22, r6
    318c:	c4 01       	movw	r24, r8
    318e:	ea e0       	ldi	r30, 0x0A	; 10
    3190:	ae 2e       	mov	r10, r30
    3192:	bb 24       	eor	r11, r11
    3194:	cc 24       	eor	r12, r12
    3196:	dd 24       	eor	r13, r13
    3198:	ee 24       	eor	r14, r14
    319a:	ff 24       	eor	r15, r15
    319c:	00 e0       	ldi	r16, 0x00	; 0
    319e:	10 e0       	ldi	r17, 0x00	; 0
    31a0:	0e 94 69 07 	call	0xed2	; 0xed2 <__umoddi3>
    31a4:	82 2f       	mov	r24, r18
    31a6:	80 5d       	subi	r24, 0xD0	; 208
    31a8:	0e 94 4b 17 	call	0x2e96	; 0x2e96 <LCD_vSendData>
    31ac:	91 01       	movw	r18, r2
    31ae:	a2 01       	movw	r20, r4
    31b0:	b3 01       	movw	r22, r6
    31b2:	c4 01       	movw	r24, r8
    31b4:	0e 94 f4 00 	call	0x1e8	; 0x1e8 <__udivdi3>
    31b8:	19 01       	movw	r2, r18
    31ba:	2a 01       	movw	r4, r20
    31bc:	3b 01       	movw	r6, r22
    31be:	4c 01       	movw	r8, r24
    31c0:	f1 e0       	ldi	r31, 0x01	; 1
    31c2:	2f 16       	cp	r2, r31
    31c4:	01 f7       	brne	.-64     	; 0x3186 <LCD_vSendNumber+0x26c>
    31c6:	33 20       	and	r3, r3
    31c8:	f1 f6       	brne	.-68     	; 0x3186 <LCD_vSendNumber+0x26c>
    31ca:	44 20       	and	r4, r4
    31cc:	e1 f6       	brne	.-72     	; 0x3186 <LCD_vSendNumber+0x26c>
    31ce:	55 20       	and	r5, r5
    31d0:	d1 f6       	brne	.-76     	; 0x3186 <LCD_vSendNumber+0x26c>
    31d2:	66 20       	and	r6, r6
    31d4:	c1 f6       	brne	.-80     	; 0x3186 <LCD_vSendNumber+0x26c>
    31d6:	77 20       	and	r7, r7
    31d8:	b1 f6       	brne	.-84     	; 0x3186 <LCD_vSendNumber+0x26c>
    31da:	88 20       	and	r8, r8
    31dc:	a1 f6       	brne	.-88     	; 0x3186 <LCD_vSendNumber+0x26c>
    31de:	99 20       	and	r9, r9
    31e0:	91 f6       	brne	.-92     	; 0x3186 <LCD_vSendNumber+0x26c>
    31e2:	29 96       	adiw	r28, 0x09	; 9
    31e4:	0f b6       	in	r0, 0x3f	; 63
    31e6:	f8 94       	cli
    31e8:	de bf       	out	0x3e, r29	; 62
    31ea:	0f be       	out	0x3f, r0	; 63
    31ec:	cd bf       	out	0x3d, r28	; 61
    31ee:	cf 91       	pop	r28
    31f0:	df 91       	pop	r29
    31f2:	1f 91       	pop	r17
    31f4:	0f 91       	pop	r16
    31f6:	ff 90       	pop	r15
    31f8:	ef 90       	pop	r14
    31fa:	df 90       	pop	r13
    31fc:	cf 90       	pop	r12
    31fe:	bf 90       	pop	r11
    3200:	af 90       	pop	r10
    3202:	9f 90       	pop	r9
    3204:	8f 90       	pop	r8
    3206:	7f 90       	pop	r7
    3208:	6f 90       	pop	r6
    320a:	5f 90       	pop	r5
    320c:	4f 90       	pop	r4
    320e:	3f 90       	pop	r3
    3210:	2f 90       	pop	r2
    3212:	08 95       	ret

00003214 <LCD_vSendString>:
    3214:	1f 93       	push	r17
    3216:	cf 93       	push	r28
    3218:	df 93       	push	r29
    321a:	ec 01       	movw	r28, r24
    321c:	10 e0       	ldi	r17, 0x00	; 0
    321e:	03 c0       	rjmp	.+6      	; 0x3226 <LCD_vSendString+0x12>
    3220:	0e 94 4b 17 	call	0x2e96	; 0x2e96 <LCD_vSendData>
    3224:	1f 5f       	subi	r17, 0xFF	; 255
    3226:	fe 01       	movw	r30, r28
    3228:	e1 0f       	add	r30, r17
    322a:	f1 1d       	adc	r31, r1
    322c:	80 81       	ld	r24, Z
    322e:	88 23       	and	r24, r24
    3230:	b9 f7       	brne	.-18     	; 0x3220 <LCD_vSendString+0xc>
    3232:	df 91       	pop	r29
    3234:	cf 91       	pop	r28
    3236:	1f 91       	pop	r17
    3238:	08 95       	ret

0000323a <LCD_vInit>:
    323a:	0f 93       	push	r16
    323c:	1f 93       	push	r17
    323e:	84 ef       	ldi	r24, 0xF4	; 244
    3240:	91 e0       	ldi	r25, 0x01	; 1
    3242:	28 ec       	ldi	r18, 0xC8	; 200
    3244:	30 e0       	ldi	r19, 0x00	; 0
    3246:	f9 01       	movw	r30, r18
    3248:	31 97       	sbiw	r30, 0x01	; 1
    324a:	f1 f7       	brne	.-4      	; 0x3248 <LCD_vInit+0xe>
    324c:	01 97       	sbiw	r24, 0x01	; 1
    324e:	d9 f7       	brne	.-10     	; 0x3246 <LCD_vInit+0xc>
    3250:	82 e0       	ldi	r24, 0x02	; 2
    3252:	64 e0       	ldi	r22, 0x04	; 4
    3254:	41 e0       	ldi	r20, 0x01	; 1
    3256:	0e 94 c5 13 	call	0x278a	; 0x278a <DIO_vSetPinDirection>
    325a:	82 e0       	ldi	r24, 0x02	; 2
    325c:	65 e0       	ldi	r22, 0x05	; 5
    325e:	41 e0       	ldi	r20, 0x01	; 1
    3260:	0e 94 c5 13 	call	0x278a	; 0x278a <DIO_vSetPinDirection>
    3264:	82 e0       	ldi	r24, 0x02	; 2
    3266:	66 e0       	ldi	r22, 0x06	; 6
    3268:	41 e0       	ldi	r20, 0x01	; 1
    326a:	0e 94 c5 13 	call	0x278a	; 0x278a <DIO_vSetPinDirection>
    326e:	82 e0       	ldi	r24, 0x02	; 2
    3270:	67 e0       	ldi	r22, 0x07	; 7
    3272:	41 e0       	ldi	r20, 0x01	; 1
    3274:	0e 94 c5 13 	call	0x278a	; 0x278a <DIO_vSetPinDirection>
    3278:	82 e0       	ldi	r24, 0x02	; 2
    327a:	60 e0       	ldi	r22, 0x00	; 0
    327c:	41 e0       	ldi	r20, 0x01	; 1
    327e:	0e 94 c5 13 	call	0x278a	; 0x278a <DIO_vSetPinDirection>
    3282:	82 e0       	ldi	r24, 0x02	; 2
    3284:	61 e0       	ldi	r22, 0x01	; 1
    3286:	41 e0       	ldi	r20, 0x01	; 1
    3288:	0e 94 c5 13 	call	0x278a	; 0x278a <DIO_vSetPinDirection>
    328c:	82 e0       	ldi	r24, 0x02	; 2
    328e:	62 e0       	ldi	r22, 0x02	; 2
    3290:	41 e0       	ldi	r20, 0x01	; 1
    3292:	0e 94 c5 13 	call	0x278a	; 0x278a <DIO_vSetPinDirection>
    3296:	82 e0       	ldi	r24, 0x02	; 2
    3298:	0e 94 ff 16 	call	0x2dfe	; 0x2dfe <LCD_vSendCommand>
    329c:	00 ed       	ldi	r16, 0xD0	; 208
    329e:	17 e0       	ldi	r17, 0x07	; 7
    32a0:	c8 01       	movw	r24, r16
    32a2:	01 97       	sbiw	r24, 0x01	; 1
    32a4:	f1 f7       	brne	.-4      	; 0x32a2 <LCD_vInit+0x68>
    32a6:	88 e2       	ldi	r24, 0x28	; 40
    32a8:	0e 94 ff 16 	call	0x2dfe	; 0x2dfe <LCD_vSendCommand>
    32ac:	c8 01       	movw	r24, r16
    32ae:	01 97       	sbiw	r24, 0x01	; 1
    32b0:	f1 f7       	brne	.-4      	; 0x32ae <LCD_vInit+0x74>
    32b2:	8e e0       	ldi	r24, 0x0E	; 14
    32b4:	0e 94 ff 16 	call	0x2dfe	; 0x2dfe <LCD_vSendCommand>
    32b8:	c8 01       	movw	r24, r16
    32ba:	01 97       	sbiw	r24, 0x01	; 1
    32bc:	f1 f7       	brne	.-4      	; 0x32ba <LCD_vInit+0x80>
    32be:	0e 94 1f 17 	call	0x2e3e	; 0x2e3e <LCD_vClearScreen>
    32c2:	86 e0       	ldi	r24, 0x06	; 6
    32c4:	0e 94 ff 16 	call	0x2dfe	; 0x2dfe <LCD_vSendCommand>
    32c8:	c8 01       	movw	r24, r16
    32ca:	01 97       	sbiw	r24, 0x01	; 1
    32cc:	f1 f7       	brne	.-4      	; 0x32ca <LCD_vInit+0x90>
    32ce:	1f 91       	pop	r17
    32d0:	0f 91       	pop	r16
    32d2:	08 95       	ret

000032d4 <LED_vTog>:
    32d4:	df 93       	push	r29
    32d6:	cf 93       	push	r28
    32d8:	00 d0       	rcall	.+0      	; 0x32da <LED_vTog+0x6>
    32da:	0f 92       	push	r0
    32dc:	cd b7       	in	r28, 0x3d	; 61
    32de:	de b7       	in	r29, 0x3e	; 62
    32e0:	96 2f       	mov	r25, r22
    32e2:	69 83       	std	Y+1, r22	; 0x01
    32e4:	67 2f       	mov	r22, r23
    32e6:	7a 83       	std	Y+2, r23	; 0x02
    32e8:	8b 83       	std	Y+3, r24	; 0x03
    32ea:	89 2f       	mov	r24, r25
    32ec:	0e 94 ab 14 	call	0x2956	; 0x2956 <DIO_vTOGPinValue>
    32f0:	0f 90       	pop	r0
    32f2:	0f 90       	pop	r0
    32f4:	0f 90       	pop	r0
    32f6:	cf 91       	pop	r28
    32f8:	df 91       	pop	r29
    32fa:	08 95       	ret

000032fc <LED_vOff>:
    32fc:	df 93       	push	r29
    32fe:	cf 93       	push	r28
    3300:	00 d0       	rcall	.+0      	; 0x3302 <LED_vOff+0x6>
    3302:	0f 92       	push	r0
    3304:	cd b7       	in	r28, 0x3d	; 61
    3306:	de b7       	in	r29, 0x3e	; 62
    3308:	26 2f       	mov	r18, r22
    330a:	69 83       	std	Y+1, r22	; 0x01
    330c:	7a 83       	std	Y+2, r23	; 0x02
    330e:	8b 83       	std	Y+3, r24	; 0x03
    3310:	67 2f       	mov	r22, r23
    3312:	81 30       	cpi	r24, 0x01	; 1
    3314:	19 f4       	brne	.+6      	; 0x331c <LED_vOff+0x20>
    3316:	82 2f       	mov	r24, r18
    3318:	40 e0       	ldi	r20, 0x00	; 0
    331a:	04 c0       	rjmp	.+8      	; 0x3324 <LED_vOff+0x28>
    331c:	88 23       	and	r24, r24
    331e:	21 f4       	brne	.+8      	; 0x3328 <LED_vOff+0x2c>
    3320:	82 2f       	mov	r24, r18
    3322:	41 e0       	ldi	r20, 0x01	; 1
    3324:	0e 94 38 14 	call	0x2870	; 0x2870 <DIO_vSetPinValue>
    3328:	0f 90       	pop	r0
    332a:	0f 90       	pop	r0
    332c:	0f 90       	pop	r0
    332e:	cf 91       	pop	r28
    3330:	df 91       	pop	r29
    3332:	08 95       	ret

00003334 <LED_vOn>:
    3334:	df 93       	push	r29
    3336:	cf 93       	push	r28
    3338:	00 d0       	rcall	.+0      	; 0x333a <LED_vOn+0x6>
    333a:	0f 92       	push	r0
    333c:	cd b7       	in	r28, 0x3d	; 61
    333e:	de b7       	in	r29, 0x3e	; 62
    3340:	26 2f       	mov	r18, r22
    3342:	69 83       	std	Y+1, r22	; 0x01
    3344:	7a 83       	std	Y+2, r23	; 0x02
    3346:	8b 83       	std	Y+3, r24	; 0x03
    3348:	67 2f       	mov	r22, r23
    334a:	81 30       	cpi	r24, 0x01	; 1
    334c:	19 f4       	brne	.+6      	; 0x3354 <LED_vOn+0x20>
    334e:	82 2f       	mov	r24, r18
    3350:	41 e0       	ldi	r20, 0x01	; 1
    3352:	04 c0       	rjmp	.+8      	; 0x335c <LED_vOn+0x28>
    3354:	88 23       	and	r24, r24
    3356:	21 f4       	brne	.+8      	; 0x3360 <LED_vOn+0x2c>
    3358:	82 2f       	mov	r24, r18
    335a:	40 e0       	ldi	r20, 0x00	; 0
    335c:	0e 94 38 14 	call	0x2870	; 0x2870 <DIO_vSetPinValue>
    3360:	0f 90       	pop	r0
    3362:	0f 90       	pop	r0
    3364:	0f 90       	pop	r0
    3366:	cf 91       	pop	r28
    3368:	df 91       	pop	r29
    336a:	08 95       	ret

0000336c <LED_vInit>:
    336c:	df 93       	push	r29
    336e:	cf 93       	push	r28
    3370:	00 d0       	rcall	.+0      	; 0x3372 <LED_vInit+0x6>
    3372:	0f 92       	push	r0
    3374:	cd b7       	in	r28, 0x3d	; 61
    3376:	de b7       	in	r29, 0x3e	; 62
    3378:	96 2f       	mov	r25, r22
    337a:	69 83       	std	Y+1, r22	; 0x01
    337c:	67 2f       	mov	r22, r23
    337e:	7a 83       	std	Y+2, r23	; 0x02
    3380:	8b 83       	std	Y+3, r24	; 0x03
    3382:	89 2f       	mov	r24, r25
    3384:	41 e0       	ldi	r20, 0x01	; 1
    3386:	0e 94 c5 13 	call	0x278a	; 0x278a <DIO_vSetPinDirection>
    338a:	0f 90       	pop	r0
    338c:	0f 90       	pop	r0
    338e:	0f 90       	pop	r0
    3390:	cf 91       	pop	r28
    3392:	df 91       	pop	r29
    3394:	08 95       	ret

00003396 <TIMER0_vInit>:
    3396:	83 b7       	in	r24, 0x33	; 51
    3398:	80 64       	ori	r24, 0x40	; 64
    339a:	83 bf       	out	0x33, r24	; 51
    339c:	83 b7       	in	r24, 0x33	; 51
    339e:	88 60       	ori	r24, 0x08	; 8
    33a0:	83 bf       	out	0x33, r24	; 51
    33a2:	83 b7       	in	r24, 0x33	; 51
    33a4:	8f 7e       	andi	r24, 0xEF	; 239
    33a6:	83 bf       	out	0x33, r24	; 51
    33a8:	83 b7       	in	r24, 0x33	; 51
    33aa:	80 62       	ori	r24, 0x20	; 32
    33ac:	83 bf       	out	0x33, r24	; 51
    33ae:	1c be       	out	0x3c, r1	; 60
    33b0:	83 b7       	in	r24, 0x33	; 51
    33b2:	88 7f       	andi	r24, 0xF8	; 248
    33b4:	83 bf       	out	0x33, r24	; 51
    33b6:	83 b7       	in	r24, 0x33	; 51
    33b8:	83 bf       	out	0x33, r24	; 51
    33ba:	08 95       	ret

000033bc <TIMER1_vInit>:
    33bc:	8f b5       	in	r24, 0x2f	; 47
    33be:	8e 7f       	andi	r24, 0xFE	; 254
    33c0:	8f bd       	out	0x2f, r24	; 47
    33c2:	8f b5       	in	r24, 0x2f	; 47
    33c4:	82 60       	ori	r24, 0x02	; 2
    33c6:	8f bd       	out	0x2f, r24	; 47
    33c8:	8e b5       	in	r24, 0x2e	; 46
    33ca:	88 60       	ori	r24, 0x08	; 8
    33cc:	8e bd       	out	0x2e, r24	; 46
    33ce:	8e b5       	in	r24, 0x2e	; 46
    33d0:	80 61       	ori	r24, 0x10	; 16
    33d2:	8e bd       	out	0x2e, r24	; 46
    33d4:	80 ed       	ldi	r24, 0xD0	; 208
    33d6:	97 e0       	ldi	r25, 0x07	; 7
    33d8:	9b bd       	out	0x2b, r25	; 43
    33da:	8a bd       	out	0x2a, r24	; 42
    33dc:	99 bd       	out	0x29, r25	; 41
    33de:	88 bd       	out	0x28, r24	; 40
    33e0:	8f e1       	ldi	r24, 0x1F	; 31
    33e2:	9e e4       	ldi	r25, 0x4E	; 78
    33e4:	97 bd       	out	0x27, r25	; 39
    33e6:	86 bd       	out	0x26, r24	; 38
    33e8:	8e b5       	in	r24, 0x2e	; 46
    33ea:	80 64       	ori	r24, 0x40	; 64
    33ec:	8e bd       	out	0x2e, r24	; 46
    33ee:	8f b5       	in	r24, 0x2f	; 47
    33f0:	8f 7b       	andi	r24, 0xBF	; 191
    33f2:	8f bd       	out	0x2f, r24	; 47
    33f4:	8f b5       	in	r24, 0x2f	; 47
    33f6:	80 68       	ori	r24, 0x80	; 128
    33f8:	8f bd       	out	0x2f, r24	; 47
    33fa:	8f b5       	in	r24, 0x2f	; 47
    33fc:	8f 7e       	andi	r24, 0xEF	; 239
    33fe:	8f bd       	out	0x2f, r24	; 47
    3400:	8f b5       	in	r24, 0x2f	; 47
    3402:	80 62       	ori	r24, 0x20	; 32
    3404:	8f bd       	out	0x2f, r24	; 47
    3406:	89 b7       	in	r24, 0x39	; 57
    3408:	8b 7f       	andi	r24, 0xFB	; 251
    340a:	89 bf       	out	0x39, r24	; 57
    340c:	89 b7       	in	r24, 0x39	; 57
    340e:	8f 7e       	andi	r24, 0xEF	; 239
    3410:	89 bf       	out	0x39, r24	; 57
    3412:	89 b7       	in	r24, 0x39	; 57
    3414:	87 7f       	andi	r24, 0xF7	; 247
    3416:	89 bf       	out	0x39, r24	; 57
    3418:	89 b7       	in	r24, 0x39	; 57
    341a:	8f 7d       	andi	r24, 0xDF	; 223
    341c:	89 bf       	out	0x39, r24	; 57
    341e:	8e b5       	in	r24, 0x2e	; 46
    3420:	88 7f       	andi	r24, 0xF8	; 248
    3422:	8e bd       	out	0x2e, r24	; 46
    3424:	8e b5       	in	r24, 0x2e	; 46
    3426:	82 60       	ori	r24, 0x02	; 2
    3428:	8e bd       	out	0x2e, r24	; 46
    342a:	08 95       	ret

0000342c <TIMER2_vInit>:
    342c:	82 b5       	in	r24, 0x22	; 34
    342e:	88 60       	ori	r24, 0x08	; 8
    3430:	82 bd       	out	0x22, r24	; 34
    3432:	85 b5       	in	r24, 0x25	; 37
    3434:	80 64       	ori	r24, 0x40	; 64
    3436:	85 bd       	out	0x25, r24	; 37
    3438:	85 b5       	in	r24, 0x25	; 37
    343a:	88 60       	ori	r24, 0x08	; 8
    343c:	85 bd       	out	0x25, r24	; 37
    343e:	85 b5       	in	r24, 0x25	; 37
    3440:	8f 7e       	andi	r24, 0xEF	; 239
    3442:	85 bd       	out	0x25, r24	; 37
    3444:	85 b5       	in	r24, 0x25	; 37
    3446:	80 62       	ori	r24, 0x20	; 32
    3448:	85 bd       	out	0x25, r24	; 37
    344a:	80 e1       	ldi	r24, 0x10	; 16
    344c:	83 bd       	out	0x23, r24	; 35
    344e:	85 b5       	in	r24, 0x25	; 37
    3450:	88 7f       	andi	r24, 0xF8	; 248
    3452:	85 bd       	out	0x25, r24	; 37
    3454:	85 b5       	in	r24, 0x25	; 37
    3456:	87 60       	ori	r24, 0x07	; 7
    3458:	85 bd       	out	0x25, r24	; 37
    345a:	08 95       	ret

0000345c <TIMER0_vSetPreload>:
    345c:	82 bf       	out	0x32, r24	; 50
    345e:	08 95       	ret

00003460 <TIMER1_vSetPreload>:
    3460:	9d bd       	out	0x2d, r25	; 45
    3462:	8c bd       	out	0x2c, r24	; 44
    3464:	08 95       	ret

00003466 <TIMER2_vSetPreload>:
    3466:	84 bd       	out	0x24, r24	; 36
    3468:	08 95       	ret

0000346a <TIMER0_vSetCTC>:
    346a:	8c bf       	out	0x3c, r24	; 60
    346c:	08 95       	ret

0000346e <TIMER1_vSetCTCA>:
    346e:	20 e0       	ldi	r18, 0x00	; 0
    3470:	30 e0       	ldi	r19, 0x00	; 0
    3472:	4a e7       	ldi	r20, 0x7A	; 122
    3474:	54 e4       	ldi	r21, 0x44	; 68
    3476:	0e 94 83 0f 	call	0x1f06	; 0x1f06 <__mulsf3>
    347a:	0e 94 c8 00 	call	0x190	; 0x190 <__fixunssfsi>
    347e:	7b bd       	out	0x2b, r23	; 43
    3480:	6a bd       	out	0x2a, r22	; 42
    3482:	08 95       	ret

00003484 <TIMER1_vSetCTCB>:
    3484:	20 e0       	ldi	r18, 0x00	; 0
    3486:	30 e0       	ldi	r19, 0x00	; 0
    3488:	4a e7       	ldi	r20, 0x7A	; 122
    348a:	54 e4       	ldi	r21, 0x44	; 68
    348c:	0e 94 83 0f 	call	0x1f06	; 0x1f06 <__mulsf3>
    3490:	0e 94 c8 00 	call	0x190	; 0x190 <__fixunssfsi>
    3494:	79 bd       	out	0x29, r23	; 41
    3496:	68 bd       	out	0x28, r22	; 40
    3498:	08 95       	ret

0000349a <TIMER2_vSetCTC>:
    349a:	83 bd       	out	0x23, r24	; 35
    349c:	08 95       	ret

0000349e <TIMER1_vSetICR1>:
    349e:	97 bd       	out	0x27, r25	; 39
    34a0:	86 bd       	out	0x26, r24	; 38
    34a2:	08 95       	ret

000034a4 <TIMER0_u8GetTimerCounterValue>:
    34a4:	82 b7       	in	r24, 0x32	; 50
    34a6:	08 95       	ret

000034a8 <TIMER1_u16GetTimerCounterValue>:
    34a8:	2c b5       	in	r18, 0x2c	; 44
    34aa:	3d b5       	in	r19, 0x2d	; 45
    34ac:	c9 01       	movw	r24, r18
    34ae:	08 95       	ret

000034b0 <TIMER2_u8GetTimerCounterValue>:
    34b0:	84 b5       	in	r24, 0x24	; 36
    34b2:	08 95       	ret

000034b4 <TIMER_vSetPWM>:
    34b4:	9b bd       	out	0x2b, r25	; 43
    34b6:	8a bd       	out	0x2a, r24	; 42
    34b8:	08 95       	ret

000034ba <Timer2_vSetPrescaler>:
    34ba:	95 b5       	in	r25, 0x25	; 37
    34bc:	98 7f       	andi	r25, 0xF8	; 248
    34be:	95 bd       	out	0x25, r25	; 37
    34c0:	95 b5       	in	r25, 0x25	; 37
    34c2:	98 2b       	or	r25, r24
    34c4:	95 bd       	out	0x25, r25	; 37
    34c6:	08 95       	ret

000034c8 <Timer0_vSetPrescaler>:
    34c8:	93 b7       	in	r25, 0x33	; 51
    34ca:	98 7f       	andi	r25, 0xF8	; 248
    34cc:	93 bf       	out	0x33, r25	; 51
    34ce:	93 b7       	in	r25, 0x33	; 51
    34d0:	98 2b       	or	r25, r24
    34d2:	93 bf       	out	0x33, r25	; 51
    34d4:	08 95       	ret

000034d6 <TIMER_vICUInitEnable>:
    34d6:	8e b5       	in	r24, 0x2e	; 46
    34d8:	80 64       	ori	r24, 0x40	; 64
    34da:	8e bd       	out	0x2e, r24	; 46
    34dc:	89 b7       	in	r24, 0x39	; 57
    34de:	80 62       	ori	r24, 0x20	; 32
    34e0:	89 bf       	out	0x39, r24	; 57
    34e2:	08 95       	ret

000034e4 <TIMER_vICUSetTriggerEdge>:
    34e4:	81 30       	cpi	r24, 0x01	; 1
    34e6:	29 f4       	brne	.+10     	; 0x34f2 <TIMER_vICUSetTriggerEdge+0xe>
    34e8:	8e b5       	in	r24, 0x2e	; 46
    34ea:	80 64       	ori	r24, 0x40	; 64
    34ec:	8e bd       	out	0x2e, r24	; 46
    34ee:	80 e0       	ldi	r24, 0x00	; 0
    34f0:	08 95       	ret
    34f2:	88 23       	and	r24, r24
    34f4:	11 f0       	breq	.+4      	; 0x34fa <TIMER_vICUSetTriggerEdge+0x16>
    34f6:	81 e0       	ldi	r24, 0x01	; 1
    34f8:	08 95       	ret
    34fa:	8e b5       	in	r24, 0x2e	; 46
    34fc:	8f 7b       	andi	r24, 0xBF	; 191
    34fe:	8e bd       	out	0x2e, r24	; 46
    3500:	80 e0       	ldi	r24, 0x00	; 0
    3502:	08 95       	ret

00003504 <TIMER_vICUEnableInterrupt>:
    3504:	89 b7       	in	r24, 0x39	; 57
    3506:	80 62       	ori	r24, 0x20	; 32
    3508:	89 bf       	out	0x39, r24	; 57
    350a:	08 95       	ret

0000350c <TIMER_vICUDisableInterrupt>:
    350c:	89 b7       	in	r24, 0x39	; 57
    350e:	8f 7d       	andi	r24, 0xDF	; 223
    3510:	89 bf       	out	0x39, r24	; 57
    3512:	08 95       	ret

00003514 <TIMER_u16GetICR>:
    3514:	26 b5       	in	r18, 0x26	; 38
    3516:	37 b5       	in	r19, 0x27	; 39
    3518:	c9 01       	movw	r24, r18
    351a:	08 95       	ret

0000351c <TIMER_vWDTSleep>:
    351c:	81 b5       	in	r24, 0x21	; 33
    351e:	88 7f       	andi	r24, 0xF8	; 248
    3520:	81 bd       	out	0x21, r24	; 33
    3522:	81 b5       	in	r24, 0x21	; 33
    3524:	86 60       	ori	r24, 0x06	; 6
    3526:	81 bd       	out	0x21, r24	; 33
    3528:	08 95       	ret

0000352a <TIMER_vWDTEnable>:
    352a:	81 b5       	in	r24, 0x21	; 33
    352c:	88 60       	ori	r24, 0x08	; 8
    352e:	81 bd       	out	0x21, r24	; 33
    3530:	08 95       	ret

00003532 <TIMER_vWDTDisable>:
    3532:	81 b5       	in	r24, 0x21	; 33
    3534:	88 61       	ori	r24, 0x18	; 24
    3536:	81 bd       	out	0x21, r24	; 33
    3538:	11 bc       	out	0x21, r1	; 33
    353a:	08 95       	ret

0000353c <TIMER_u8SetCallBack>:
    353c:	00 97       	sbiw	r24, 0x00	; 0
    353e:	11 f4       	brne	.+4      	; 0x3544 <TIMER_u8SetCallBack+0x8>
    3540:	82 e0       	ldi	r24, 0x02	; 2
    3542:	08 95       	ret
    3544:	e6 2f       	mov	r30, r22
    3546:	f0 e0       	ldi	r31, 0x00	; 0
    3548:	ee 0f       	add	r30, r30
    354a:	ff 1f       	adc	r31, r31
    354c:	ec 50       	subi	r30, 0x0C	; 12
    354e:	fd 4f       	sbci	r31, 0xFD	; 253
    3550:	91 83       	std	Z+1, r25	; 0x01
    3552:	80 83       	st	Z, r24
    3554:	80 e0       	ldi	r24, 0x00	; 0
    3556:	08 95       	ret

00003558 <__vector_11>:
    3558:	1f 92       	push	r1
    355a:	0f 92       	push	r0
    355c:	0f b6       	in	r0, 0x3f	; 63
    355e:	0f 92       	push	r0
    3560:	11 24       	eor	r1, r1
    3562:	2f 93       	push	r18
    3564:	3f 93       	push	r19
    3566:	4f 93       	push	r20
    3568:	5f 93       	push	r21
    356a:	6f 93       	push	r22
    356c:	7f 93       	push	r23
    356e:	8f 93       	push	r24
    3570:	9f 93       	push	r25
    3572:	af 93       	push	r26
    3574:	bf 93       	push	r27
    3576:	ef 93       	push	r30
    3578:	ff 93       	push	r31
    357a:	e0 91 0a 03 	lds	r30, 0x030A
    357e:	f0 91 0b 03 	lds	r31, 0x030B
    3582:	30 97       	sbiw	r30, 0x00	; 0
    3584:	09 f0       	breq	.+2      	; 0x3588 <__vector_11+0x30>
    3586:	09 95       	icall
    3588:	ff 91       	pop	r31
    358a:	ef 91       	pop	r30
    358c:	bf 91       	pop	r27
    358e:	af 91       	pop	r26
    3590:	9f 91       	pop	r25
    3592:	8f 91       	pop	r24
    3594:	7f 91       	pop	r23
    3596:	6f 91       	pop	r22
    3598:	5f 91       	pop	r21
    359a:	4f 91       	pop	r20
    359c:	3f 91       	pop	r19
    359e:	2f 91       	pop	r18
    35a0:	0f 90       	pop	r0
    35a2:	0f be       	out	0x3f, r0	; 63
    35a4:	0f 90       	pop	r0
    35a6:	1f 90       	pop	r1
    35a8:	18 95       	reti

000035aa <__vector_10>:
    35aa:	1f 92       	push	r1
    35ac:	0f 92       	push	r0
    35ae:	0f b6       	in	r0, 0x3f	; 63
    35b0:	0f 92       	push	r0
    35b2:	11 24       	eor	r1, r1
    35b4:	2f 93       	push	r18
    35b6:	3f 93       	push	r19
    35b8:	4f 93       	push	r20
    35ba:	5f 93       	push	r21
    35bc:	6f 93       	push	r22
    35be:	7f 93       	push	r23
    35c0:	8f 93       	push	r24
    35c2:	9f 93       	push	r25
    35c4:	af 93       	push	r26
    35c6:	bf 93       	push	r27
    35c8:	ef 93       	push	r30
    35ca:	ff 93       	push	r31
    35cc:	e0 91 08 03 	lds	r30, 0x0308
    35d0:	f0 91 09 03 	lds	r31, 0x0309
    35d4:	30 97       	sbiw	r30, 0x00	; 0
    35d6:	09 f0       	breq	.+2      	; 0x35da <__vector_10+0x30>
    35d8:	09 95       	icall
    35da:	ff 91       	pop	r31
    35dc:	ef 91       	pop	r30
    35de:	bf 91       	pop	r27
    35e0:	af 91       	pop	r26
    35e2:	9f 91       	pop	r25
    35e4:	8f 91       	pop	r24
    35e6:	7f 91       	pop	r23
    35e8:	6f 91       	pop	r22
    35ea:	5f 91       	pop	r21
    35ec:	4f 91       	pop	r20
    35ee:	3f 91       	pop	r19
    35f0:	2f 91       	pop	r18
    35f2:	0f 90       	pop	r0
    35f4:	0f be       	out	0x3f, r0	; 63
    35f6:	0f 90       	pop	r0
    35f8:	1f 90       	pop	r1
    35fa:	18 95       	reti

000035fc <__vector_9>:
    35fc:	1f 92       	push	r1
    35fe:	0f 92       	push	r0
    3600:	0f b6       	in	r0, 0x3f	; 63
    3602:	0f 92       	push	r0
    3604:	11 24       	eor	r1, r1
    3606:	2f 93       	push	r18
    3608:	3f 93       	push	r19
    360a:	4f 93       	push	r20
    360c:	5f 93       	push	r21
    360e:	6f 93       	push	r22
    3610:	7f 93       	push	r23
    3612:	8f 93       	push	r24
    3614:	9f 93       	push	r25
    3616:	af 93       	push	r26
    3618:	bf 93       	push	r27
    361a:	ef 93       	push	r30
    361c:	ff 93       	push	r31
    361e:	e0 91 06 03 	lds	r30, 0x0306
    3622:	f0 91 07 03 	lds	r31, 0x0307
    3626:	30 97       	sbiw	r30, 0x00	; 0
    3628:	09 f0       	breq	.+2      	; 0x362c <__vector_9+0x30>
    362a:	09 95       	icall
    362c:	ff 91       	pop	r31
    362e:	ef 91       	pop	r30
    3630:	bf 91       	pop	r27
    3632:	af 91       	pop	r26
    3634:	9f 91       	pop	r25
    3636:	8f 91       	pop	r24
    3638:	7f 91       	pop	r23
    363a:	6f 91       	pop	r22
    363c:	5f 91       	pop	r21
    363e:	4f 91       	pop	r20
    3640:	3f 91       	pop	r19
    3642:	2f 91       	pop	r18
    3644:	0f 90       	pop	r0
    3646:	0f be       	out	0x3f, r0	; 63
    3648:	0f 90       	pop	r0
    364a:	1f 90       	pop	r1
    364c:	18 95       	reti

0000364e <__vector_8>:
    364e:	1f 92       	push	r1
    3650:	0f 92       	push	r0
    3652:	0f b6       	in	r0, 0x3f	; 63
    3654:	0f 92       	push	r0
    3656:	11 24       	eor	r1, r1
    3658:	2f 93       	push	r18
    365a:	3f 93       	push	r19
    365c:	4f 93       	push	r20
    365e:	5f 93       	push	r21
    3660:	6f 93       	push	r22
    3662:	7f 93       	push	r23
    3664:	8f 93       	push	r24
    3666:	9f 93       	push	r25
    3668:	af 93       	push	r26
    366a:	bf 93       	push	r27
    366c:	ef 93       	push	r30
    366e:	ff 93       	push	r31
    3670:	e0 91 04 03 	lds	r30, 0x0304
    3674:	f0 91 05 03 	lds	r31, 0x0305
    3678:	30 97       	sbiw	r30, 0x00	; 0
    367a:	09 f0       	breq	.+2      	; 0x367e <__vector_8+0x30>
    367c:	09 95       	icall
    367e:	ff 91       	pop	r31
    3680:	ef 91       	pop	r30
    3682:	bf 91       	pop	r27
    3684:	af 91       	pop	r26
    3686:	9f 91       	pop	r25
    3688:	8f 91       	pop	r24
    368a:	7f 91       	pop	r23
    368c:	6f 91       	pop	r22
    368e:	5f 91       	pop	r21
    3690:	4f 91       	pop	r20
    3692:	3f 91       	pop	r19
    3694:	2f 91       	pop	r18
    3696:	0f 90       	pop	r0
    3698:	0f be       	out	0x3f, r0	; 63
    369a:	0f 90       	pop	r0
    369c:	1f 90       	pop	r1
    369e:	18 95       	reti

000036a0 <__vector_7>:
    36a0:	1f 92       	push	r1
    36a2:	0f 92       	push	r0
    36a4:	0f b6       	in	r0, 0x3f	; 63
    36a6:	0f 92       	push	r0
    36a8:	11 24       	eor	r1, r1
    36aa:	2f 93       	push	r18
    36ac:	3f 93       	push	r19
    36ae:	4f 93       	push	r20
    36b0:	5f 93       	push	r21
    36b2:	6f 93       	push	r22
    36b4:	7f 93       	push	r23
    36b6:	8f 93       	push	r24
    36b8:	9f 93       	push	r25
    36ba:	af 93       	push	r26
    36bc:	bf 93       	push	r27
    36be:	ef 93       	push	r30
    36c0:	ff 93       	push	r31
    36c2:	e0 91 02 03 	lds	r30, 0x0302
    36c6:	f0 91 03 03 	lds	r31, 0x0303
    36ca:	30 97       	sbiw	r30, 0x00	; 0
    36cc:	09 f0       	breq	.+2      	; 0x36d0 <__vector_7+0x30>
    36ce:	09 95       	icall
    36d0:	ff 91       	pop	r31
    36d2:	ef 91       	pop	r30
    36d4:	bf 91       	pop	r27
    36d6:	af 91       	pop	r26
    36d8:	9f 91       	pop	r25
    36da:	8f 91       	pop	r24
    36dc:	7f 91       	pop	r23
    36de:	6f 91       	pop	r22
    36e0:	5f 91       	pop	r21
    36e2:	4f 91       	pop	r20
    36e4:	3f 91       	pop	r19
    36e6:	2f 91       	pop	r18
    36e8:	0f 90       	pop	r0
    36ea:	0f be       	out	0x3f, r0	; 63
    36ec:	0f 90       	pop	r0
    36ee:	1f 90       	pop	r1
    36f0:	18 95       	reti

000036f2 <__vector_6>:
    36f2:	1f 92       	push	r1
    36f4:	0f 92       	push	r0
    36f6:	0f b6       	in	r0, 0x3f	; 63
    36f8:	0f 92       	push	r0
    36fa:	11 24       	eor	r1, r1
    36fc:	2f 93       	push	r18
    36fe:	3f 93       	push	r19
    3700:	4f 93       	push	r20
    3702:	5f 93       	push	r21
    3704:	6f 93       	push	r22
    3706:	7f 93       	push	r23
    3708:	8f 93       	push	r24
    370a:	9f 93       	push	r25
    370c:	af 93       	push	r26
    370e:	bf 93       	push	r27
    3710:	ef 93       	push	r30
    3712:	ff 93       	push	r31
    3714:	e0 91 00 03 	lds	r30, 0x0300
    3718:	f0 91 01 03 	lds	r31, 0x0301
    371c:	30 97       	sbiw	r30, 0x00	; 0
    371e:	09 f0       	breq	.+2      	; 0x3722 <__vector_6+0x30>
    3720:	09 95       	icall
    3722:	ff 91       	pop	r31
    3724:	ef 91       	pop	r30
    3726:	bf 91       	pop	r27
    3728:	af 91       	pop	r26
    372a:	9f 91       	pop	r25
    372c:	8f 91       	pop	r24
    372e:	7f 91       	pop	r23
    3730:	6f 91       	pop	r22
    3732:	5f 91       	pop	r21
    3734:	4f 91       	pop	r20
    3736:	3f 91       	pop	r19
    3738:	2f 91       	pop	r18
    373a:	0f 90       	pop	r0
    373c:	0f be       	out	0x3f, r0	; 63
    373e:	0f 90       	pop	r0
    3740:	1f 90       	pop	r1
    3742:	18 95       	reti

00003744 <__vector_5>:
    3744:	1f 92       	push	r1
    3746:	0f 92       	push	r0
    3748:	0f b6       	in	r0, 0x3f	; 63
    374a:	0f 92       	push	r0
    374c:	11 24       	eor	r1, r1
    374e:	2f 93       	push	r18
    3750:	3f 93       	push	r19
    3752:	4f 93       	push	r20
    3754:	5f 93       	push	r21
    3756:	6f 93       	push	r22
    3758:	7f 93       	push	r23
    375a:	8f 93       	push	r24
    375c:	9f 93       	push	r25
    375e:	af 93       	push	r26
    3760:	bf 93       	push	r27
    3762:	ef 93       	push	r30
    3764:	ff 93       	push	r31
    3766:	e0 91 fe 02 	lds	r30, 0x02FE
    376a:	f0 91 ff 02 	lds	r31, 0x02FF
    376e:	30 97       	sbiw	r30, 0x00	; 0
    3770:	09 f0       	breq	.+2      	; 0x3774 <__vector_5+0x30>
    3772:	09 95       	icall
    3774:	ff 91       	pop	r31
    3776:	ef 91       	pop	r30
    3778:	bf 91       	pop	r27
    377a:	af 91       	pop	r26
    377c:	9f 91       	pop	r25
    377e:	8f 91       	pop	r24
    3780:	7f 91       	pop	r23
    3782:	6f 91       	pop	r22
    3784:	5f 91       	pop	r21
    3786:	4f 91       	pop	r20
    3788:	3f 91       	pop	r19
    378a:	2f 91       	pop	r18
    378c:	0f 90       	pop	r0
    378e:	0f be       	out	0x3f, r0	; 63
    3790:	0f 90       	pop	r0
    3792:	1f 90       	pop	r1
    3794:	18 95       	reti

00003796 <__vector_4>:
    3796:	1f 92       	push	r1
    3798:	0f 92       	push	r0
    379a:	0f b6       	in	r0, 0x3f	; 63
    379c:	0f 92       	push	r0
    379e:	11 24       	eor	r1, r1
    37a0:	2f 93       	push	r18
    37a2:	3f 93       	push	r19
    37a4:	4f 93       	push	r20
    37a6:	5f 93       	push	r21
    37a8:	6f 93       	push	r22
    37aa:	7f 93       	push	r23
    37ac:	8f 93       	push	r24
    37ae:	9f 93       	push	r25
    37b0:	af 93       	push	r26
    37b2:	bf 93       	push	r27
    37b4:	ef 93       	push	r30
    37b6:	ff 93       	push	r31
    37b8:	e0 91 fc 02 	lds	r30, 0x02FC
    37bc:	f0 91 fd 02 	lds	r31, 0x02FD
    37c0:	30 97       	sbiw	r30, 0x00	; 0
    37c2:	09 f0       	breq	.+2      	; 0x37c6 <__vector_4+0x30>
    37c4:	09 95       	icall
    37c6:	ff 91       	pop	r31
    37c8:	ef 91       	pop	r30
    37ca:	bf 91       	pop	r27
    37cc:	af 91       	pop	r26
    37ce:	9f 91       	pop	r25
    37d0:	8f 91       	pop	r24
    37d2:	7f 91       	pop	r23
    37d4:	6f 91       	pop	r22
    37d6:	5f 91       	pop	r21
    37d8:	4f 91       	pop	r20
    37da:	3f 91       	pop	r19
    37dc:	2f 91       	pop	r18
    37de:	0f 90       	pop	r0
    37e0:	0f be       	out	0x3f, r0	; 63
    37e2:	0f 90       	pop	r0
    37e4:	1f 90       	pop	r1
    37e6:	18 95       	reti

000037e8 <USART_vInit>:
    37e8:	59 98       	cbi	0x0b, 1	; 11
    37ea:	10 bc       	out	0x20, r1	; 32
    37ec:	83 e3       	ldi	r24, 0x33	; 51
    37ee:	89 b9       	out	0x09, r24	; 9
    37f0:	58 98       	cbi	0x0b, 0	; 11
    37f2:	52 98       	cbi	0x0a, 2	; 10
    37f4:	86 e8       	ldi	r24, 0x86	; 134
    37f6:	80 bd       	out	0x20, r24	; 32
    37f8:	57 98       	cbi	0x0a, 7	; 10
    37fa:	56 98       	cbi	0x0a, 6	; 10
    37fc:	55 98       	cbi	0x0a, 5	; 10
    37fe:	54 9a       	sbi	0x0a, 4	; 10
    3800:	53 9a       	sbi	0x0a, 3	; 10
    3802:	08 95       	ret

00003804 <USART_u8SendData>:
    3804:	28 2f       	mov	r18, r24
    3806:	80 91 06 03 	lds	r24, 0x0306
    380a:	88 23       	and	r24, r24
    380c:	11 f0       	breq	.+4      	; 0x3812 <USART_u8SendData+0xe>
    380e:	83 e0       	ldi	r24, 0x03	; 3
    3810:	08 95       	ret
    3812:	80 e0       	ldi	r24, 0x00	; 0
    3814:	90 e0       	ldi	r25, 0x00	; 0
    3816:	a0 e0       	ldi	r26, 0x00	; 0
    3818:	b0 e0       	ldi	r27, 0x00	; 0
    381a:	03 c0       	rjmp	.+6      	; 0x3822 <USART_u8SendData+0x1e>
    381c:	01 96       	adiw	r24, 0x01	; 1
    381e:	a1 1d       	adc	r26, r1
    3820:	b1 1d       	adc	r27, r1
    3822:	5d 99       	sbic	0x0b, 5	; 11
    3824:	09 c0       	rjmp	.+18     	; 0x3838 <USART_u8SendData+0x34>
    3826:	80 31       	cpi	r24, 0x10	; 16
    3828:	37 e2       	ldi	r19, 0x27	; 39
    382a:	93 07       	cpc	r25, r19
    382c:	30 e0       	ldi	r19, 0x00	; 0
    382e:	a3 07       	cpc	r26, r19
    3830:	30 e0       	ldi	r19, 0x00	; 0
    3832:	b3 07       	cpc	r27, r19
    3834:	99 f7       	brne	.-26     	; 0x381c <USART_u8SendData+0x18>
    3836:	08 c0       	rjmp	.+16     	; 0x3848 <USART_u8SendData+0x44>
    3838:	80 51       	subi	r24, 0x10	; 16
    383a:	97 42       	sbci	r25, 0x27	; 39
    383c:	a0 40       	sbci	r26, 0x00	; 0
    383e:	b0 40       	sbci	r27, 0x00	; 0
    3840:	19 f0       	breq	.+6      	; 0x3848 <USART_u8SendData+0x44>
    3842:	2c b9       	out	0x0c, r18	; 12
    3844:	80 e0       	ldi	r24, 0x00	; 0
    3846:	01 c0       	rjmp	.+2      	; 0x384a <USART_u8SendData+0x46>
    3848:	84 e0       	ldi	r24, 0x04	; 4
    384a:	10 92 06 03 	sts	0x0306, r1
    384e:	08 95       	ret

00003850 <USART_u8ReceiveData>:
    3850:	fc 01       	movw	r30, r24
    3852:	00 97       	sbiw	r24, 0x00	; 0
    3854:	11 f4       	brne	.+4      	; 0x385a <USART_u8ReceiveData+0xa>
    3856:	82 e0       	ldi	r24, 0x02	; 2
    3858:	08 95       	ret
    385a:	80 91 06 03 	lds	r24, 0x0306
    385e:	88 23       	and	r24, r24
    3860:	11 f0       	breq	.+4      	; 0x3866 <USART_u8ReceiveData+0x16>
    3862:	83 e0       	ldi	r24, 0x03	; 3
    3864:	08 95       	ret
    3866:	80 e0       	ldi	r24, 0x00	; 0
    3868:	90 e0       	ldi	r25, 0x00	; 0
    386a:	a0 e0       	ldi	r26, 0x00	; 0
    386c:	b0 e0       	ldi	r27, 0x00	; 0
    386e:	03 c0       	rjmp	.+6      	; 0x3876 <USART_u8ReceiveData+0x26>
    3870:	01 96       	adiw	r24, 0x01	; 1
    3872:	a1 1d       	adc	r26, r1
    3874:	b1 1d       	adc	r27, r1
    3876:	5f 99       	sbic	0x0b, 7	; 11
    3878:	09 c0       	rjmp	.+18     	; 0x388c <USART_u8ReceiveData+0x3c>
    387a:	80 31       	cpi	r24, 0x10	; 16
    387c:	27 e2       	ldi	r18, 0x27	; 39
    387e:	92 07       	cpc	r25, r18
    3880:	20 e0       	ldi	r18, 0x00	; 0
    3882:	a2 07       	cpc	r26, r18
    3884:	20 e0       	ldi	r18, 0x00	; 0
    3886:	b2 07       	cpc	r27, r18
    3888:	99 f7       	brne	.-26     	; 0x3870 <USART_u8ReceiveData+0x20>
    388a:	09 c0       	rjmp	.+18     	; 0x389e <USART_u8ReceiveData+0x4e>
    388c:	80 51       	subi	r24, 0x10	; 16
    388e:	97 42       	sbci	r25, 0x27	; 39
    3890:	a0 40       	sbci	r26, 0x00	; 0
    3892:	b0 40       	sbci	r27, 0x00	; 0
    3894:	21 f0       	breq	.+8      	; 0x389e <USART_u8ReceiveData+0x4e>
    3896:	8c b1       	in	r24, 0x0c	; 12
    3898:	80 83       	st	Z, r24
    389a:	80 e0       	ldi	r24, 0x00	; 0
    389c:	01 c0       	rjmp	.+2      	; 0x38a0 <USART_u8ReceiveData+0x50>
    389e:	84 e0       	ldi	r24, 0x04	; 4
    38a0:	10 92 06 03 	sts	0x0306, r1
    38a4:	08 95       	ret

000038a6 <USART_u8SendStringSynch>:
    38a6:	0f 93       	push	r16
    38a8:	1f 93       	push	r17
    38aa:	cf 93       	push	r28
    38ac:	df 93       	push	r29
    38ae:	00 97       	sbiw	r24, 0x00	; 0
    38b0:	11 f4       	brne	.+4      	; 0x38b6 <USART_u8SendStringSynch+0x10>
    38b2:	82 e0       	ldi	r24, 0x02	; 2
    38b4:	14 c0       	rjmp	.+40     	; 0x38de <USART_u8SendStringSynch+0x38>
    38b6:	ec 01       	movw	r28, r24
    38b8:	08 ec       	ldi	r16, 0xC8	; 200
    38ba:	10 e0       	ldi	r17, 0x00	; 0
    38bc:	0d c0       	rjmp	.+26     	; 0x38d8 <USART_u8SendStringSynch+0x32>
    38be:	0e 94 02 1c 	call	0x3804	; 0x3804 <USART_u8SendData>
    38c2:	28 ee       	ldi	r18, 0xE8	; 232
    38c4:	33 e0       	ldi	r19, 0x03	; 3
    38c6:	f8 01       	movw	r30, r16
    38c8:	31 97       	sbiw	r30, 0x01	; 1
    38ca:	f1 f7       	brne	.-4      	; 0x38c8 <USART_u8SendStringSynch+0x22>
    38cc:	21 50       	subi	r18, 0x01	; 1
    38ce:	30 40       	sbci	r19, 0x00	; 0
    38d0:	d1 f7       	brne	.-12     	; 0x38c6 <USART_u8SendStringSynch+0x20>
    38d2:	21 96       	adiw	r28, 0x01	; 1
    38d4:	88 23       	and	r24, r24
    38d6:	19 f4       	brne	.+6      	; 0x38de <USART_u8SendStringSynch+0x38>
    38d8:	88 81       	ld	r24, Y
    38da:	88 23       	and	r24, r24
    38dc:	81 f7       	brne	.-32     	; 0x38be <USART_u8SendStringSynch+0x18>
    38de:	df 91       	pop	r29
    38e0:	cf 91       	pop	r28
    38e2:	1f 91       	pop	r17
    38e4:	0f 91       	pop	r16
    38e6:	08 95       	ret

000038e8 <USART_u8SendStringAsynch>:
    38e8:	fc 01       	movw	r30, r24
    38ea:	80 91 06 03 	lds	r24, 0x0306
    38ee:	88 23       	and	r24, r24
    38f0:	11 f0       	breq	.+4      	; 0x38f6 <USART_u8SendStringAsynch+0xe>
    38f2:	83 e0       	ldi	r24, 0x03	; 3
    38f4:	08 95       	ret
    38f6:	30 97       	sbiw	r30, 0x00	; 0
    38f8:	a9 f0       	breq	.+42     	; 0x3924 <USART_u8SendStringAsynch+0x3c>
    38fa:	61 15       	cp	r22, r1
    38fc:	71 05       	cpc	r23, r1
    38fe:	91 f0       	breq	.+36     	; 0x3924 <USART_u8SendStringAsynch+0x3c>
    3900:	81 e0       	ldi	r24, 0x01	; 1
    3902:	80 93 06 03 	sts	0x0306, r24
    3906:	f0 93 05 03 	sts	0x0305, r31
    390a:	e0 93 04 03 	sts	0x0304, r30
    390e:	70 93 08 03 	sts	0x0308, r23
    3912:	60 93 07 03 	sts	0x0307, r22
    3916:	10 92 0c 03 	sts	0x030C, r1
    391a:	80 81       	ld	r24, Z
    391c:	8c b9       	out	0x0c, r24	; 12
    391e:	56 9a       	sbi	0x0a, 6	; 10
    3920:	80 e0       	ldi	r24, 0x00	; 0
    3922:	08 95       	ret
    3924:	82 e0       	ldi	r24, 0x02	; 2
    3926:	08 95       	ret

00003928 <USART_u8ReceiveBufferSynch>:
    3928:	af 92       	push	r10
    392a:	bf 92       	push	r11
    392c:	cf 92       	push	r12
    392e:	df 92       	push	r13
    3930:	ef 92       	push	r14
    3932:	ff 92       	push	r15
    3934:	0f 93       	push	r16
    3936:	1f 93       	push	r17
    3938:	cf 93       	push	r28
    393a:	df 93       	push	r29
    393c:	ec 01       	movw	r28, r24
    393e:	5a 01       	movw	r10, r20
    3940:	6b 01       	movw	r12, r22
    3942:	00 97       	sbiw	r24, 0x00	; 0
    3944:	11 f4       	brne	.+4      	; 0x394a <USART_u8ReceiveBufferSynch+0x22>
    3946:	82 e0       	ldi	r24, 0x02	; 2
    3948:	16 c0       	rjmp	.+44     	; 0x3976 <USART_u8ReceiveBufferSynch+0x4e>
    394a:	ee 24       	eor	r14, r14
    394c:	ff 24       	eor	r15, r15
    394e:	87 01       	movw	r16, r14
    3950:	0c c0       	rjmp	.+24     	; 0x396a <USART_u8ReceiveBufferSynch+0x42>
    3952:	ce 01       	movw	r24, r28
    3954:	8e 0d       	add	r24, r14
    3956:	9f 1d       	adc	r25, r15
    3958:	0e 94 28 1c 	call	0x3850	; 0x3850 <USART_u8ReceiveData>
    395c:	88 23       	and	r24, r24
    395e:	59 f4       	brne	.+22     	; 0x3976 <USART_u8ReceiveBufferSynch+0x4e>
    3960:	08 94       	sec
    3962:	e1 1c       	adc	r14, r1
    3964:	f1 1c       	adc	r15, r1
    3966:	01 1d       	adc	r16, r1
    3968:	11 1d       	adc	r17, r1
    396a:	ea 14       	cp	r14, r10
    396c:	fb 04       	cpc	r15, r11
    396e:	0c 05       	cpc	r16, r12
    3970:	1d 05       	cpc	r17, r13
    3972:	78 f3       	brcs	.-34     	; 0x3952 <USART_u8ReceiveBufferSynch+0x2a>
    3974:	80 e0       	ldi	r24, 0x00	; 0
    3976:	df 91       	pop	r29
    3978:	cf 91       	pop	r28
    397a:	1f 91       	pop	r17
    397c:	0f 91       	pop	r16
    397e:	ff 90       	pop	r15
    3980:	ef 90       	pop	r14
    3982:	df 90       	pop	r13
    3984:	cf 90       	pop	r12
    3986:	bf 90       	pop	r11
    3988:	af 90       	pop	r10
    398a:	08 95       	ret

0000398c <USART_u8ReceiveBufferAsynch>:
    398c:	bc 01       	movw	r22, r24
    398e:	80 91 06 03 	lds	r24, 0x0306
    3992:	88 23       	and	r24, r24
    3994:	11 f0       	breq	.+4      	; 0x399a <USART_u8ReceiveBufferAsynch+0xe>
    3996:	83 e0       	ldi	r24, 0x03	; 3
    3998:	08 95       	ret
    399a:	61 15       	cp	r22, r1
    399c:	71 05       	cpc	r23, r1
    399e:	a9 f0       	breq	.+42     	; 0x39ca <USART_u8ReceiveBufferAsynch+0x3e>
    39a0:	21 15       	cp	r18, r1
    39a2:	31 05       	cpc	r19, r1
    39a4:	91 f0       	breq	.+36     	; 0x39ca <USART_u8ReceiveBufferAsynch+0x3e>
    39a6:	81 e0       	ldi	r24, 0x01	; 1
    39a8:	80 93 06 03 	sts	0x0306, r24
    39ac:	70 93 0a 03 	sts	0x030A, r23
    39b0:	60 93 09 03 	sts	0x0309, r22
    39b4:	30 93 08 03 	sts	0x0308, r19
    39b8:	20 93 07 03 	sts	0x0307, r18
    39bc:	40 93 0b 03 	sts	0x030B, r20
    39c0:	10 92 0c 03 	sts	0x030C, r1
    39c4:	57 9a       	sbi	0x0a, 7	; 10
    39c6:	80 e0       	ldi	r24, 0x00	; 0
    39c8:	08 95       	ret
    39ca:	82 e0       	ldi	r24, 0x02	; 2
    39cc:	08 95       	ret

000039ce <__vector_13>:
    39ce:	1f 92       	push	r1
    39d0:	0f 92       	push	r0
    39d2:	0f b6       	in	r0, 0x3f	; 63
    39d4:	0f 92       	push	r0
    39d6:	11 24       	eor	r1, r1
    39d8:	2f 93       	push	r18
    39da:	3f 93       	push	r19
    39dc:	4f 93       	push	r20
    39de:	5f 93       	push	r21
    39e0:	6f 93       	push	r22
    39e2:	7f 93       	push	r23
    39e4:	8f 93       	push	r24
    39e6:	9f 93       	push	r25
    39e8:	af 93       	push	r26
    39ea:	bf 93       	push	r27
    39ec:	ef 93       	push	r30
    39ee:	ff 93       	push	r31
    39f0:	90 91 0c 03 	lds	r25, 0x030C
    39f4:	8c b1       	in	r24, 0x0c	; 12
    39f6:	e0 91 09 03 	lds	r30, 0x0309
    39fa:	f0 91 0a 03 	lds	r31, 0x030A
    39fe:	e9 0f       	add	r30, r25
    3a00:	f1 1d       	adc	r31, r1
    3a02:	80 83       	st	Z, r24
    3a04:	9f 5f       	subi	r25, 0xFF	; 255
    3a06:	90 93 0c 03 	sts	0x030C, r25
    3a0a:	80 91 0b 03 	lds	r24, 0x030B
    3a0e:	98 17       	cp	r25, r24
    3a10:	61 f4       	brne	.+24     	; 0x3a2a <__vector_13+0x5c>
    3a12:	10 92 0c 03 	sts	0x030C, r1
    3a16:	10 92 06 03 	sts	0x0306, r1
    3a1a:	e0 91 07 03 	lds	r30, 0x0307
    3a1e:	f0 91 08 03 	lds	r31, 0x0308
    3a22:	30 97       	sbiw	r30, 0x00	; 0
    3a24:	09 f0       	breq	.+2      	; 0x3a28 <__vector_13+0x5a>
    3a26:	09 95       	icall
    3a28:	57 98       	cbi	0x0a, 7	; 10
    3a2a:	ff 91       	pop	r31
    3a2c:	ef 91       	pop	r30
    3a2e:	bf 91       	pop	r27
    3a30:	af 91       	pop	r26
    3a32:	9f 91       	pop	r25
    3a34:	8f 91       	pop	r24
    3a36:	7f 91       	pop	r23
    3a38:	6f 91       	pop	r22
    3a3a:	5f 91       	pop	r21
    3a3c:	4f 91       	pop	r20
    3a3e:	3f 91       	pop	r19
    3a40:	2f 91       	pop	r18
    3a42:	0f 90       	pop	r0
    3a44:	0f be       	out	0x3f, r0	; 63
    3a46:	0f 90       	pop	r0
    3a48:	1f 90       	pop	r1
    3a4a:	18 95       	reti

00003a4c <__vector_15>:
    3a4c:	1f 92       	push	r1
    3a4e:	0f 92       	push	r0
    3a50:	0f b6       	in	r0, 0x3f	; 63
    3a52:	0f 92       	push	r0
    3a54:	11 24       	eor	r1, r1
    3a56:	2f 93       	push	r18
    3a58:	3f 93       	push	r19
    3a5a:	4f 93       	push	r20
    3a5c:	5f 93       	push	r21
    3a5e:	6f 93       	push	r22
    3a60:	7f 93       	push	r23
    3a62:	8f 93       	push	r24
    3a64:	9f 93       	push	r25
    3a66:	af 93       	push	r26
    3a68:	bf 93       	push	r27
    3a6a:	ef 93       	push	r30
    3a6c:	ff 93       	push	r31
    3a6e:	80 91 0c 03 	lds	r24, 0x030C
    3a72:	8f 5f       	subi	r24, 0xFF	; 255
    3a74:	80 93 0c 03 	sts	0x030C, r24
    3a78:	e0 91 04 03 	lds	r30, 0x0304
    3a7c:	f0 91 05 03 	lds	r31, 0x0305
    3a80:	e8 0f       	add	r30, r24
    3a82:	f1 1d       	adc	r31, r1
    3a84:	e0 81       	ld	r30, Z
    3a86:	ee 23       	and	r30, r30
    3a88:	69 f4       	brne	.+26     	; 0x3aa4 <__vector_15+0x58>
    3a8a:	10 92 0c 03 	sts	0x030C, r1
    3a8e:	10 92 06 03 	sts	0x0306, r1
    3a92:	e0 91 07 03 	lds	r30, 0x0307
    3a96:	f0 91 08 03 	lds	r31, 0x0308
    3a9a:	30 97       	sbiw	r30, 0x00	; 0
    3a9c:	09 f0       	breq	.+2      	; 0x3aa0 <__vector_15+0x54>
    3a9e:	09 95       	icall
    3aa0:	56 98       	cbi	0x0a, 6	; 10
    3aa2:	01 c0       	rjmp	.+2      	; 0x3aa6 <__vector_15+0x5a>
    3aa4:	ec b9       	out	0x0c, r30	; 12
    3aa6:	ff 91       	pop	r31
    3aa8:	ef 91       	pop	r30
    3aaa:	bf 91       	pop	r27
    3aac:	af 91       	pop	r26
    3aae:	9f 91       	pop	r25
    3ab0:	8f 91       	pop	r24
    3ab2:	7f 91       	pop	r23
    3ab4:	6f 91       	pop	r22
    3ab6:	5f 91       	pop	r21
    3ab8:	4f 91       	pop	r20
    3aba:	3f 91       	pop	r19
    3abc:	2f 91       	pop	r18
    3abe:	0f 90       	pop	r0
    3ac0:	0f be       	out	0x3f, r0	; 63
    3ac2:	0f 90       	pop	r0
    3ac4:	1f 90       	pop	r1
    3ac6:	18 95       	reti

00003ac8 <get_input>:
    3ac8:	ef 92       	push	r14
    3aca:	ff 92       	push	r15
    3acc:	0f 93       	push	r16
    3ace:	1f 93       	push	r17
    3ad0:	df 93       	push	r29
    3ad2:	cf 93       	push	r28
    3ad4:	0f 92       	push	r0
    3ad6:	cd b7       	in	r28, 0x3d	; 61
    3ad8:	de b7       	in	r29, 0x3e	; 62
    3ada:	7e 01       	movw	r14, r28
    3adc:	08 94       	sec
    3ade:	e1 1c       	adc	r14, r1
    3ae0:	f1 1c       	adc	r15, r1
    3ae2:	08 ec       	ldi	r16, 0xC8	; 200
    3ae4:	10 e0       	ldi	r17, 0x00	; 0
    3ae6:	0e 94 45 16 	call	0x2c8a	; 0x2c8a <KPD_u8GetPressed>
    3aea:	8f 3f       	cpi	r24, 0xFF	; 255
    3aec:	79 f4       	brne	.+30     	; 0x3b0c <get_input+0x44>
    3aee:	c7 01       	movw	r24, r14
    3af0:	0e 94 28 1c 	call	0x3850	; 0x3850 <USART_u8ReceiveData>
    3af4:	88 23       	and	r24, r24
    3af6:	11 f4       	brne	.+4      	; 0x3afc <get_input+0x34>
    3af8:	89 81       	ldd	r24, Y+1	; 0x01
    3afa:	08 c0       	rjmp	.+16     	; 0x3b0c <get_input+0x44>
    3afc:	84 ef       	ldi	r24, 0xF4	; 244
    3afe:	91 e0       	ldi	r25, 0x01	; 1
    3b00:	f8 01       	movw	r30, r16
    3b02:	31 97       	sbiw	r30, 0x01	; 1
    3b04:	f1 f7       	brne	.-4      	; 0x3b02 <get_input+0x3a>
    3b06:	01 97       	sbiw	r24, 0x01	; 1
    3b08:	d9 f7       	brne	.-10     	; 0x3b00 <get_input+0x38>
    3b0a:	ed cf       	rjmp	.-38     	; 0x3ae6 <get_input+0x1e>
    3b0c:	0f 90       	pop	r0
    3b0e:	cf 91       	pop	r28
    3b10:	df 91       	pop	r29
    3b12:	1f 91       	pop	r17
    3b14:	0f 91       	pop	r16
    3b16:	ff 90       	pop	r15
    3b18:	ef 90       	pop	r14
    3b1a:	08 95       	ret

00003b1c <door>:
    3b1c:	0e 94 1f 17 	call	0x2e3e	; 0x2e3e <LCD_vClearScreen>
    3b20:	81 e0       	ldi	r24, 0x01	; 1
    3b22:	66 e0       	ldi	r22, 0x06	; 6
    3b24:	0e 94 27 17 	call	0x2e4e	; 0x2e4e <LCD_vSetPosition>
    3b28:	80 e6       	ldi	r24, 0x60	; 96
    3b2a:	90 e0       	ldi	r25, 0x00	; 0
    3b2c:	0e 94 0a 19 	call	0x3214	; 0x3214 <LCD_vSendString>
    3b30:	82 e0       	ldi	r24, 0x02	; 2
    3b32:	61 e0       	ldi	r22, 0x01	; 1
    3b34:	0e 94 27 17 	call	0x2e4e	; 0x2e4e <LCD_vSetPosition>
    3b38:	8d e6       	ldi	r24, 0x6D	; 109
    3b3a:	90 e0       	ldi	r25, 0x00	; 0
    3b3c:	0e 94 0a 19 	call	0x3214	; 0x3214 <LCD_vSendString>
    3b40:	0e 94 64 1d 	call	0x3ac8	; 0x3ac8 <get_input>
    3b44:	80 93 e0 02 	sts	0x02E0, r24
    3b48:	81 33       	cpi	r24, 0x31	; 49
    3b4a:	29 f0       	breq	.+10     	; 0x3b56 <door+0x3a>
    3b4c:	82 33       	cpi	r24, 0x32	; 50
    3b4e:	41 f0       	breq	.+16     	; 0x3b60 <door+0x44>
    3b50:	80 33       	cpi	r24, 0x30	; 48
    3b52:	b1 f7       	brne	.-20     	; 0x3b40 <door+0x24>
    3b54:	08 95       	ret
    3b56:	60 e0       	ldi	r22, 0x00	; 0
    3b58:	70 e0       	ldi	r23, 0x00	; 0
    3b5a:	80 ec       	ldi	r24, 0xC0	; 192
    3b5c:	9f e3       	ldi	r25, 0x3F	; 63
    3b5e:	04 c0       	rjmp	.+8      	; 0x3b68 <door+0x4c>
    3b60:	60 e0       	ldi	r22, 0x00	; 0
    3b62:	70 e0       	ldi	r23, 0x00	; 0
    3b64:	80 e0       	ldi	r24, 0x00	; 0
    3b66:	90 e4       	ldi	r25, 0x40	; 64
    3b68:	0e 94 42 1a 	call	0x3484	; 0x3484 <TIMER1_vSetCTCB>
    3b6c:	e9 cf       	rjmp	.-46     	; 0x3b40 <door+0x24>

00003b6e <park>:
    3b6e:	0e 94 1f 17 	call	0x2e3e	; 0x2e3e <LCD_vClearScreen>
    3b72:	81 e0       	ldi	r24, 0x01	; 1
    3b74:	66 e0       	ldi	r22, 0x06	; 6
    3b76:	0e 94 27 17 	call	0x2e4e	; 0x2e4e <LCD_vSetPosition>
    3b7a:	83 e8       	ldi	r24, 0x83	; 131
    3b7c:	90 e0       	ldi	r25, 0x00	; 0
    3b7e:	0e 94 0a 19 	call	0x3214	; 0x3214 <LCD_vSendString>
    3b82:	82 e0       	ldi	r24, 0x02	; 2
    3b84:	61 e0       	ldi	r22, 0x01	; 1
    3b86:	0e 94 27 17 	call	0x2e4e	; 0x2e4e <LCD_vSetPosition>
    3b8a:	8d e6       	ldi	r24, 0x6D	; 109
    3b8c:	90 e0       	ldi	r25, 0x00	; 0
    3b8e:	0e 94 0a 19 	call	0x3214	; 0x3214 <LCD_vSendString>
    3b92:	0e 94 64 1d 	call	0x3ac8	; 0x3ac8 <get_input>
    3b96:	80 93 e0 02 	sts	0x02E0, r24
    3b9a:	81 33       	cpi	r24, 0x31	; 49
    3b9c:	29 f0       	breq	.+10     	; 0x3ba8 <park+0x3a>
    3b9e:	82 33       	cpi	r24, 0x32	; 50
    3ba0:	91 f0       	breq	.+36     	; 0x3bc6 <park+0x58>
    3ba2:	80 33       	cpi	r24, 0x30	; 48
    3ba4:	b1 f7       	brne	.-20     	; 0x3b92 <park+0x24>
    3ba6:	08 95       	ret
    3ba8:	60 e0       	ldi	r22, 0x00	; 0
    3baa:	70 e0       	ldi	r23, 0x00	; 0
    3bac:	80 ec       	ldi	r24, 0xC0	; 192
    3bae:	9f e3       	ldi	r25, 0x3F	; 63
    3bb0:	0e 94 37 1a 	call	0x346e	; 0x346e <TIMER1_vSetCTCA>
    3bb4:	60 91 e2 02 	lds	r22, 0x02E2
    3bb8:	70 91 e3 02 	lds	r23, 0x02E3
    3bbc:	80 91 e4 02 	lds	r24, 0x02E4
    3bc0:	0e 94 9a 19 	call	0x3334	; 0x3334 <LED_vOn>
    3bc4:	e6 cf       	rjmp	.-52     	; 0x3b92 <park+0x24>
    3bc6:	60 e0       	ldi	r22, 0x00	; 0
    3bc8:	70 e0       	ldi	r23, 0x00	; 0
    3bca:	80 e0       	ldi	r24, 0x00	; 0
    3bcc:	90 e4       	ldi	r25, 0x40	; 64
    3bce:	0e 94 37 1a 	call	0x346e	; 0x346e <TIMER1_vSetCTCA>
    3bd2:	60 91 e2 02 	lds	r22, 0x02E2
    3bd6:	70 91 e3 02 	lds	r23, 0x02E3
    3bda:	80 91 e4 02 	lds	r24, 0x02E4
    3bde:	0e 94 7e 19 	call	0x32fc	; 0x32fc <LED_vOff>
    3be2:	d7 cf       	rjmp	.-82     	; 0x3b92 <park+0x24>

00003be4 <control>:
    3be4:	1f 93       	push	r17
    3be6:	1f ef       	ldi	r17, 0xFF	; 255
    3be8:	0e 94 1f 17 	call	0x2e3e	; 0x2e3e <LCD_vClearScreen>
    3bec:	81 e0       	ldi	r24, 0x01	; 1
    3bee:	66 e0       	ldi	r22, 0x06	; 6
    3bf0:	0e 94 27 17 	call	0x2e4e	; 0x2e4e <LCD_vSetPosition>
    3bf4:	82 e9       	ldi	r24, 0x92	; 146
    3bf6:	90 e0       	ldi	r25, 0x00	; 0
    3bf8:	0e 94 0a 19 	call	0x3214	; 0x3214 <LCD_vSendString>
    3bfc:	82 e0       	ldi	r24, 0x02	; 2
    3bfe:	61 e0       	ldi	r22, 0x01	; 1
    3c00:	0e 94 27 17 	call	0x2e4e	; 0x2e4e <LCD_vSetPosition>
    3c04:	8f e9       	ldi	r24, 0x9F	; 159
    3c06:	90 e0       	ldi	r25, 0x00	; 0
    3c08:	0e 94 0a 19 	call	0x3214	; 0x3214 <LCD_vSendString>
    3c0c:	0e 94 64 1d 	call	0x3ac8	; 0x3ac8 <get_input>
    3c10:	80 93 e0 02 	sts	0x02E0, r24
    3c14:	81 33       	cpi	r24, 0x31	; 49
    3c16:	29 f0       	breq	.+10     	; 0x3c22 <control+0x3e>
    3c18:	82 33       	cpi	r24, 0x32	; 50
    3c1a:	31 f0       	breq	.+12     	; 0x3c28 <control+0x44>
    3c1c:	80 33       	cpi	r24, 0x30	; 48
    3c1e:	31 f4       	brne	.+12     	; 0x3c2c <control+0x48>
    3c20:	08 c0       	rjmp	.+16     	; 0x3c32 <control+0x4e>
    3c22:	0e 94 b7 1d 	call	0x3b6e	; 0x3b6e <park>
    3c26:	02 c0       	rjmp	.+4      	; 0x3c2c <control+0x48>
    3c28:	0e 94 8e 1d 	call	0x3b1c	; 0x3b1c <door>
    3c2c:	10 93 e0 02 	sts	0x02E0, r17
    3c30:	db cf       	rjmp	.-74     	; 0x3be8 <control+0x4>
    3c32:	1f 91       	pop	r17
    3c34:	08 95       	ret

00003c36 <APP>:
    3c36:	0e 94 1d 19 	call	0x323a	; 0x323a <LCD_vInit>
    3c3a:	0e 94 ab 16 	call	0x2d56	; 0x2d56 <KPD_Init>
    3c3e:	83 e0       	ldi	r24, 0x03	; 3
    3c40:	65 e0       	ldi	r22, 0x05	; 5
    3c42:	41 e0       	ldi	r20, 0x01	; 1
    3c44:	0e 94 c5 13 	call	0x278a	; 0x278a <DIO_vSetPinDirection>
    3c48:	83 e0       	ldi	r24, 0x03	; 3
    3c4a:	64 e0       	ldi	r22, 0x04	; 4
    3c4c:	41 e0       	ldi	r20, 0x01	; 1
    3c4e:	0e 94 c5 13 	call	0x278a	; 0x278a <DIO_vSetPinDirection>
    3c52:	0e 94 de 19 	call	0x33bc	; 0x33bc <TIMER1_vInit>
    3c56:	80 e0       	ldi	r24, 0x00	; 0
    3c58:	60 e0       	ldi	r22, 0x00	; 0
    3c5a:	40 e0       	ldi	r20, 0x00	; 0
    3c5c:	0e 94 c5 13 	call	0x278a	; 0x278a <DIO_vSetPinDirection>
    3c60:	0e 94 f4 1b 	call	0x37e8	; 0x37e8 <USART_vInit>
    3c64:	60 91 e2 02 	lds	r22, 0x02E2
    3c68:	70 91 e3 02 	lds	r23, 0x02E3
    3c6c:	80 91 e4 02 	lds	r24, 0x02E4
    3c70:	0e 94 b6 19 	call	0x336c	; 0x336c <LED_vInit>
    3c74:	60 91 e5 02 	lds	r22, 0x02E5
    3c78:	70 91 e6 02 	lds	r23, 0x02E6
    3c7c:	80 91 e7 02 	lds	r24, 0x02E7
    3c80:	0e 94 b6 19 	call	0x336c	; 0x336c <LED_vInit>
    3c84:	08 95       	ret

00003c86 <main>:
    3c86:	ff 92       	push	r15
    3c88:	0f 93       	push	r16
    3c8a:	1f 93       	push	r17
    3c8c:	cf 93       	push	r28
    3c8e:	df 93       	push	r29
    3c90:	0e 94 1b 1e 	call	0x3c36	; 0x3c36 <APP>
    3c94:	86 eb       	ldi	r24, 0xB6	; 182
    3c96:	90 e0       	ldi	r25, 0x00	; 0
    3c98:	0e 94 0a 19 	call	0x3214	; 0x3214 <LCD_vSendString>
    3c9c:	90 91 df 02 	lds	r25, 0x02DF
    3ca0:	80 91 0d 03 	lds	r24, 0x030D
    3ca4:	98 17       	cp	r25, r24
    3ca6:	69 f4       	brne	.+26     	; 0x3cc2 <main+0x3c>
    3ca8:	80 ee       	ldi	r24, 0xE0	; 224
    3caa:	92 e0       	ldi	r25, 0x02	; 2
    3cac:	0e 94 28 1c 	call	0x3850	; 0x3850 <USART_u8ReceiveData>
    3cb0:	80 91 e0 02 	lds	r24, 0x02E0
    3cb4:	8f 3f       	cpi	r24, 0xFF	; 255
    3cb6:	c1 f3       	breq	.-16     	; 0x3ca8 <main+0x22>
    3cb8:	8d 33       	cpi	r24, 0x3D	; 61
    3cba:	99 f4       	brne	.+38     	; 0x3ce2 <main+0x5c>
    3cbc:	80 91 de 02 	lds	r24, 0x02DE
    3cc0:	0e c0       	rjmp	.+28     	; 0x3cde <main+0x58>
    3cc2:	80 91 de 02 	lds	r24, 0x02DE
    3cc6:	98 17       	cp	r25, r24
    3cc8:	61 f4       	brne	.+24     	; 0x3ce2 <main+0x5c>
    3cca:	0e 94 45 16 	call	0x2c8a	; 0x2c8a <KPD_u8GetPressed>
    3cce:	80 93 e0 02 	sts	0x02E0, r24
    3cd2:	8f 3f       	cpi	r24, 0xFF	; 255
    3cd4:	d1 f3       	breq	.-12     	; 0x3cca <main+0x44>
    3cd6:	8d 33       	cpi	r24, 0x3D	; 61
    3cd8:	21 f4       	brne	.+8      	; 0x3ce2 <main+0x5c>
    3cda:	80 91 0d 03 	lds	r24, 0x030D
    3cde:	80 93 df 02 	sts	0x02DF, r24
    3ce2:	0e 94 1f 17 	call	0x2e3e	; 0x2e3e <LCD_vClearScreen>
    3ce6:	80 e0       	ldi	r24, 0x00	; 0
    3ce8:	90 e0       	ldi	r25, 0x00	; 0
    3cea:	61 e3       	ldi	r22, 0x31	; 49
    3cec:	0e 94 38 16 	call	0x2c70	; 0x2c70 <EEROM_VoidSendDataToAddress>
    3cf0:	81 e0       	ldi	r24, 0x01	; 1
    3cf2:	90 e0       	ldi	r25, 0x00	; 0
    3cf4:	62 e3       	ldi	r22, 0x32	; 50
    3cf6:	0e 94 38 16 	call	0x2c70	; 0x2c70 <EEROM_VoidSendDataToAddress>
    3cfa:	82 e0       	ldi	r24, 0x02	; 2
    3cfc:	90 e0       	ldi	r25, 0x00	; 0
    3cfe:	63 e3       	ldi	r22, 0x33	; 51
    3d00:	0e 94 38 16 	call	0x2c70	; 0x2c70 <EEROM_VoidSendDataToAddress>
    3d04:	83 e0       	ldi	r24, 0x03	; 3
    3d06:	90 e0       	ldi	r25, 0x00	; 0
    3d08:	64 e3       	ldi	r22, 0x34	; 52
    3d0a:	0e 94 38 16 	call	0x2c70	; 0x2c70 <EEROM_VoidSendDataToAddress>
    3d0e:	8f ef       	ldi	r24, 0xFF	; 255
    3d10:	80 93 e0 02 	sts	0x02E0, r24
    3d14:	0e 94 44 24 	call	0x4888	; 0x4888 <TEST_PASS>
    3d18:	00 e0       	ldi	r16, 0x00	; 0
    3d1a:	ff 24       	eor	r15, r15
    3d1c:	f3 94       	inc	r15
    3d1e:	c8 ec       	ldi	r28, 0xC8	; 200
    3d20:	d0 e0       	ldi	r29, 0x00	; 0
    3d22:	0e c0       	rjmp	.+28     	; 0x3d40 <main+0xba>
    3d24:	e0 2f       	mov	r30, r16
    3d26:	f0 e0       	ldi	r31, 0x00	; 0
    3d28:	ee 5d       	subi	r30, 0xDE	; 222
    3d2a:	fc 4f       	sbci	r31, 0xFC	; 252
    3d2c:	10 81       	ld	r17, Z
    3d2e:	80 2f       	mov	r24, r16
    3d30:	90 e0       	ldi	r25, 0x00	; 0
    3d32:	0e 94 40 16 	call	0x2c80	; 0x2c80 <EEROM_VoidReadDataFromAddress>
    3d36:	18 17       	cp	r17, r24
    3d38:	11 f4       	brne	.+4      	; 0x3d3e <main+0xb8>
    3d3a:	f0 92 0f 03 	sts	0x030F, r15
    3d3e:	0f 5f       	subi	r16, 0xFF	; 255
    3d40:	04 30       	cpi	r16, 0x04	; 4
    3d42:	80 f3       	brcs	.-32     	; 0x3d24 <main+0x9e>
    3d44:	80 91 0f 03 	lds	r24, 0x030F
    3d48:	81 30       	cpi	r24, 0x01	; 1
    3d4a:	19 f4       	brne	.+6      	; 0x3d52 <main+0xcc>
    3d4c:	10 92 e1 02 	sts	0x02E1, r1
    3d50:	02 c0       	rjmp	.+4      	; 0x3d56 <main+0xd0>
    3d52:	f0 92 e1 02 	sts	0x02E1, r15
    3d56:	80 91 e8 02 	lds	r24, 0x02E8
    3d5a:	88 23       	and	r24, r24
    3d5c:	19 f1       	breq	.+70     	; 0x3da4 <main+0x11e>
    3d5e:	80 91 e1 02 	lds	r24, 0x02E1
    3d62:	88 23       	and	r24, r24
    3d64:	19 f0       	breq	.+6      	; 0x3d6c <main+0xe6>
    3d66:	81 30       	cpi	r24, 0x01	; 1
    3d68:	b9 f4       	brne	.+46     	; 0x3d98 <main+0x112>
    3d6a:	14 c0       	rjmp	.+40     	; 0x3d94 <main+0x10e>
    3d6c:	8c eb       	ldi	r24, 0xBC	; 188
    3d6e:	90 e0       	ldi	r25, 0x00	; 0
    3d70:	0e 94 0a 19 	call	0x3214	; 0x3214 <LCD_vSendString>
    3d74:	f0 92 27 03 	sts	0x0327, r15
    3d78:	80 e1       	ldi	r24, 0x10	; 16
    3d7a:	97 e2       	ldi	r25, 0x27	; 39
    3d7c:	fe 01       	movw	r30, r28
    3d7e:	31 97       	sbiw	r30, 0x01	; 1
    3d80:	f1 f7       	brne	.-4      	; 0x3d7e <main+0xf8>
    3d82:	01 97       	sbiw	r24, 0x01	; 1
    3d84:	d9 f7       	brne	.-10     	; 0x3d7c <main+0xf6>
    3d86:	0e 94 1f 17 	call	0x2e3e	; 0x2e3e <LCD_vClearScreen>
    3d8a:	81 ed       	ldi	r24, 0xD1	; 209
    3d8c:	90 e0       	ldi	r25, 0x00	; 0
    3d8e:	0e 94 0a 19 	call	0x3214	; 0x3214 <LCD_vSendString>
    3d92:	02 c0       	rjmp	.+4      	; 0x3d98 <main+0x112>
    3d94:	0e 94 36 23 	call	0x466c	; 0x466c <CHECK_PASS>
    3d98:	80 91 27 03 	lds	r24, 0x0327
    3d9c:	88 23       	and	r24, r24
    3d9e:	11 f4       	brne	.+4      	; 0x3da4 <main+0x11e>
    3da0:	00 e0       	ldi	r16, 0x00	; 0
    3da2:	c0 cf       	rjmp	.-128    	; 0x3d24 <main+0x9e>
    3da4:	80 91 e8 02 	lds	r24, 0x02E8
    3da8:	88 23       	and	r24, r24
    3daa:	61 f4       	brne	.+24     	; 0x3dc4 <main+0x13e>
    3dac:	89 ed       	ldi	r24, 0xD9	; 217
    3dae:	90 e0       	ldi	r25, 0x00	; 0
    3db0:	0e 94 0a 19 	call	0x3214	; 0x3214 <LCD_vSendString>
    3db4:	60 91 e5 02 	lds	r22, 0x02E5
    3db8:	70 91 e6 02 	lds	r23, 0x02E6
    3dbc:	80 91 e7 02 	lds	r24, 0x02E7
    3dc0:	0e 94 9a 19 	call	0x3334	; 0x3334 <LED_vOn>
    3dc4:	80 91 27 03 	lds	r24, 0x0327
    3dc8:	81 30       	cpi	r24, 0x01	; 1
    3dca:	29 f4       	brne	.+10     	; 0x3dd6 <main+0x150>
    3dcc:	60 e0       	ldi	r22, 0x00	; 0
    3dce:	70 e0       	ldi	r23, 0x00	; 0
    3dd0:	80 ec       	ldi	r24, 0xC0	; 192
    3dd2:	9f e3       	ldi	r25, 0x3F	; 63
    3dd4:	04 c0       	rjmp	.+8      	; 0x3dde <main+0x158>
    3dd6:	60 e0       	ldi	r22, 0x00	; 0
    3dd8:	70 e0       	ldi	r23, 0x00	; 0
    3dda:	80 e0       	ldi	r24, 0x00	; 0
    3ddc:	90 e4       	ldi	r25, 0x40	; 64
    3dde:	0e 94 42 1a 	call	0x3484	; 0x3484 <TIMER1_vSetCTCB>
    3de2:	80 e0       	ldi	r24, 0x00	; 0
    3de4:	60 e0       	ldi	r22, 0x00	; 0
    3de6:	0e 94 e0 14 	call	0x29c0	; 0x29c0 <DIO_u8GetPinValue>
    3dea:	80 93 10 03 	sts	0x0310, r24
    3dee:	81 30       	cpi	r24, 0x01	; 1
    3df0:	79 f4       	brne	.+30     	; 0x3e10 <main+0x18a>
    3df2:	60 e0       	ldi	r22, 0x00	; 0
    3df4:	70 e0       	ldi	r23, 0x00	; 0
    3df6:	80 ec       	ldi	r24, 0xC0	; 192
    3df8:	9f e3       	ldi	r25, 0x3F	; 63
    3dfa:	0e 94 37 1a 	call	0x346e	; 0x346e <TIMER1_vSetCTCA>
    3dfe:	60 91 e2 02 	lds	r22, 0x02E2
    3e02:	70 91 e3 02 	lds	r23, 0x02E3
    3e06:	80 91 e4 02 	lds	r24, 0x02E4
    3e0a:	0e 94 9a 19 	call	0x3334	; 0x3334 <LED_vOn>
    3e0e:	0e c0       	rjmp	.+28     	; 0x3e2c <main+0x1a6>
    3e10:	60 e0       	ldi	r22, 0x00	; 0
    3e12:	70 e0       	ldi	r23, 0x00	; 0
    3e14:	80 e0       	ldi	r24, 0x00	; 0
    3e16:	90 e4       	ldi	r25, 0x40	; 64
    3e18:	0e 94 37 1a 	call	0x346e	; 0x346e <TIMER1_vSetCTCA>
    3e1c:	60 91 e2 02 	lds	r22, 0x02E2
    3e20:	70 91 e3 02 	lds	r23, 0x02E3
    3e24:	80 91 e4 02 	lds	r24, 0x02E4
    3e28:	0e 94 7e 19 	call	0x32fc	; 0x32fc <LED_vOff>
    3e2c:	8f ef       	ldi	r24, 0xFF	; 255
    3e2e:	80 93 e0 02 	sts	0x02E0, r24
    3e32:	90 91 df 02 	lds	r25, 0x02DF
    3e36:	80 91 0d 03 	lds	r24, 0x030D
    3e3a:	98 17       	cp	r25, r24
    3e3c:	91 f5       	brne	.+100    	; 0x3ea2 <main+0x21c>
    3e3e:	80 ee       	ldi	r24, 0xE0	; 224
    3e40:	92 e0       	ldi	r25, 0x02	; 2
    3e42:	0e 94 28 1c 	call	0x3850	; 0x3850 <USART_u8ReceiveData>
    3e46:	80 e0       	ldi	r24, 0x00	; 0
    3e48:	60 e0       	ldi	r22, 0x00	; 0
    3e4a:	0e 94 e0 14 	call	0x29c0	; 0x29c0 <DIO_u8GetPinValue>
    3e4e:	80 93 10 03 	sts	0x0310, r24
    3e52:	81 30       	cpi	r24, 0x01	; 1
    3e54:	79 f4       	brne	.+30     	; 0x3e74 <main+0x1ee>
    3e56:	60 e0       	ldi	r22, 0x00	; 0
    3e58:	70 e0       	ldi	r23, 0x00	; 0
    3e5a:	80 ec       	ldi	r24, 0xC0	; 192
    3e5c:	9f e3       	ldi	r25, 0x3F	; 63
    3e5e:	0e 94 37 1a 	call	0x346e	; 0x346e <TIMER1_vSetCTCA>
    3e62:	60 91 e2 02 	lds	r22, 0x02E2
    3e66:	70 91 e3 02 	lds	r23, 0x02E3
    3e6a:	80 91 e4 02 	lds	r24, 0x02E4
    3e6e:	0e 94 9a 19 	call	0x3334	; 0x3334 <LED_vOn>
    3e72:	0e c0       	rjmp	.+28     	; 0x3e90 <main+0x20a>
    3e74:	60 e0       	ldi	r22, 0x00	; 0
    3e76:	70 e0       	ldi	r23, 0x00	; 0
    3e78:	80 e0       	ldi	r24, 0x00	; 0
    3e7a:	90 e4       	ldi	r25, 0x40	; 64
    3e7c:	0e 94 37 1a 	call	0x346e	; 0x346e <TIMER1_vSetCTCA>
    3e80:	60 91 e2 02 	lds	r22, 0x02E2
    3e84:	70 91 e3 02 	lds	r23, 0x02E3
    3e88:	80 91 e4 02 	lds	r24, 0x02E4
    3e8c:	0e 94 7e 19 	call	0x32fc	; 0x32fc <LED_vOff>
    3e90:	80 91 e0 02 	lds	r24, 0x02E0
    3e94:	8f 3f       	cpi	r24, 0xFF	; 255
    3e96:	99 f2       	breq	.-90     	; 0x3e3e <main+0x1b8>
    3e98:	8d 33       	cpi	r24, 0x3D	; 61
    3e9a:	e9 f5       	brne	.+122    	; 0x3f16 <main+0x290>
    3e9c:	80 91 de 02 	lds	r24, 0x02DE
    3ea0:	35 c0       	rjmp	.+106    	; 0x3f0c <main+0x286>
    3ea2:	80 91 de 02 	lds	r24, 0x02DE
    3ea6:	98 17       	cp	r25, r24
    3ea8:	b1 f5       	brne	.+108    	; 0x3f16 <main+0x290>
    3eaa:	0e 94 45 16 	call	0x2c8a	; 0x2c8a <KPD_u8GetPressed>
    3eae:	80 93 e0 02 	sts	0x02E0, r24
    3eb2:	80 e0       	ldi	r24, 0x00	; 0
    3eb4:	60 e0       	ldi	r22, 0x00	; 0
    3eb6:	0e 94 e0 14 	call	0x29c0	; 0x29c0 <DIO_u8GetPinValue>
    3eba:	80 93 10 03 	sts	0x0310, r24
    3ebe:	81 30       	cpi	r24, 0x01	; 1
    3ec0:	79 f4       	brne	.+30     	; 0x3ee0 <main+0x25a>
    3ec2:	60 e0       	ldi	r22, 0x00	; 0
    3ec4:	70 e0       	ldi	r23, 0x00	; 0
    3ec6:	80 ec       	ldi	r24, 0xC0	; 192
    3ec8:	9f e3       	ldi	r25, 0x3F	; 63
    3eca:	0e 94 37 1a 	call	0x346e	; 0x346e <TIMER1_vSetCTCA>
    3ece:	60 91 e2 02 	lds	r22, 0x02E2
    3ed2:	70 91 e3 02 	lds	r23, 0x02E3
    3ed6:	80 91 e4 02 	lds	r24, 0x02E4
    3eda:	0e 94 9a 19 	call	0x3334	; 0x3334 <LED_vOn>
    3ede:	0e c0       	rjmp	.+28     	; 0x3efc <main+0x276>
    3ee0:	60 e0       	ldi	r22, 0x00	; 0
    3ee2:	70 e0       	ldi	r23, 0x00	; 0
    3ee4:	80 e0       	ldi	r24, 0x00	; 0
    3ee6:	90 e4       	ldi	r25, 0x40	; 64
    3ee8:	0e 94 37 1a 	call	0x346e	; 0x346e <TIMER1_vSetCTCA>
    3eec:	60 91 e2 02 	lds	r22, 0x02E2
    3ef0:	70 91 e3 02 	lds	r23, 0x02E3
    3ef4:	80 91 e4 02 	lds	r24, 0x02E4
    3ef8:	0e 94 7e 19 	call	0x32fc	; 0x32fc <LED_vOff>
    3efc:	80 91 e0 02 	lds	r24, 0x02E0
    3f00:	8f 3f       	cpi	r24, 0xFF	; 255
    3f02:	99 f2       	breq	.-90     	; 0x3eaa <main+0x224>
    3f04:	8d 33       	cpi	r24, 0x3D	; 61
    3f06:	39 f4       	brne	.+14     	; 0x3f16 <main+0x290>
    3f08:	80 91 0d 03 	lds	r24, 0x030D
    3f0c:	80 93 df 02 	sts	0x02DF, r24
    3f10:	81 e3       	ldi	r24, 0x31	; 49
    3f12:	80 93 e0 02 	sts	0x02E0, r24
    3f16:	80 91 e0 02 	lds	r24, 0x02E0
    3f1a:	80 93 11 03 	sts	0x0311, r24
    3f1e:	82 33       	cpi	r24, 0x32	; 50
    3f20:	09 f4       	brne	.+2      	; 0x3f24 <main+0x29e>
    3f22:	bb c0       	rjmp	.+374    	; 0x409a <main+0x414>
    3f24:	83 33       	cpi	r24, 0x33	; 51
    3f26:	20 f4       	brcc	.+8      	; 0x3f30 <main+0x2aa>
    3f28:	81 33       	cpi	r24, 0x31	; 49
    3f2a:	09 f0       	breq	.+2      	; 0x3f2e <main+0x2a8>
    3f2c:	41 c2       	rjmp	.+1154   	; 0x43b0 <main+0x72a>
    3f2e:	07 c0       	rjmp	.+14     	; 0x3f3e <main+0x2b8>
    3f30:	83 33       	cpi	r24, 0x33	; 51
    3f32:	09 f4       	brne	.+2      	; 0x3f36 <main+0x2b0>
    3f34:	63 c1       	rjmp	.+710    	; 0x41fc <main+0x576>
    3f36:	84 33       	cpi	r24, 0x34	; 52
    3f38:	09 f0       	breq	.+2      	; 0x3f3c <main+0x2b6>
    3f3a:	3a c2       	rjmp	.+1140   	; 0x43b0 <main+0x72a>
    3f3c:	cc c1       	rjmp	.+920    	; 0x42d6 <main+0x650>
    3f3e:	80 91 11 03 	lds	r24, 0x0311
    3f42:	81 33       	cpi	r24, 0x31	; 49
    3f44:	29 f4       	brne	.+10     	; 0x3f50 <main+0x2ca>
    3f46:	60 e0       	ldi	r22, 0x00	; 0
    3f48:	70 e0       	ldi	r23, 0x00	; 0
    3f4a:	80 ec       	ldi	r24, 0xC0	; 192
    3f4c:	9f e3       	ldi	r25, 0x3F	; 63
    3f4e:	06 c0       	rjmp	.+12     	; 0x3f5c <main+0x2d6>
    3f50:	82 33       	cpi	r24, 0x32	; 50
    3f52:	39 f4       	brne	.+14     	; 0x3f62 <main+0x2dc>
    3f54:	60 e0       	ldi	r22, 0x00	; 0
    3f56:	70 e0       	ldi	r23, 0x00	; 0
    3f58:	80 e0       	ldi	r24, 0x00	; 0
    3f5a:	90 e4       	ldi	r25, 0x40	; 64
    3f5c:	0e 94 42 1a 	call	0x3484	; 0x3484 <TIMER1_vSetCTCB>
    3f60:	21 c0       	rjmp	.+66     	; 0x3fa4 <main+0x31e>
    3f62:	83 33       	cpi	r24, 0x33	; 51
    3f64:	79 f4       	brne	.+30     	; 0x3f84 <main+0x2fe>
    3f66:	60 e0       	ldi	r22, 0x00	; 0
    3f68:	70 e0       	ldi	r23, 0x00	; 0
    3f6a:	80 ec       	ldi	r24, 0xC0	; 192
    3f6c:	9f e3       	ldi	r25, 0x3F	; 63
    3f6e:	0e 94 37 1a 	call	0x346e	; 0x346e <TIMER1_vSetCTCA>
    3f72:	60 91 e2 02 	lds	r22, 0x02E2
    3f76:	70 91 e3 02 	lds	r23, 0x02E3
    3f7a:	80 91 e4 02 	lds	r24, 0x02E4
    3f7e:	0e 94 9a 19 	call	0x3334	; 0x3334 <LED_vOn>
    3f82:	10 c0       	rjmp	.+32     	; 0x3fa4 <main+0x31e>
    3f84:	84 33       	cpi	r24, 0x34	; 52
    3f86:	71 f4       	brne	.+28     	; 0x3fa4 <main+0x31e>
    3f88:	60 e0       	ldi	r22, 0x00	; 0
    3f8a:	70 e0       	ldi	r23, 0x00	; 0
    3f8c:	80 e0       	ldi	r24, 0x00	; 0
    3f8e:	90 e4       	ldi	r25, 0x40	; 64
    3f90:	0e 94 37 1a 	call	0x346e	; 0x346e <TIMER1_vSetCTCA>
    3f94:	60 91 e2 02 	lds	r22, 0x02E2
    3f98:	70 91 e3 02 	lds	r23, 0x02E3
    3f9c:	80 91 e4 02 	lds	r24, 0x02E4
    3fa0:	0e 94 7e 19 	call	0x32fc	; 0x32fc <LED_vOff>
    3fa4:	60 e0       	ldi	r22, 0x00	; 0
    3fa6:	70 e0       	ldi	r23, 0x00	; 0
    3fa8:	80 ec       	ldi	r24, 0xC0	; 192
    3faa:	9f e3       	ldi	r25, 0x3F	; 63
    3fac:	0e 94 42 1a 	call	0x3484	; 0x3484 <TIMER1_vSetCTCB>
    3fb0:	90 91 df 02 	lds	r25, 0x02DF
    3fb4:	80 91 0d 03 	lds	r24, 0x030D
    3fb8:	98 17       	cp	r25, r24
    3fba:	91 f5       	brne	.+100    	; 0x4020 <main+0x39a>
    3fbc:	80 ee       	ldi	r24, 0xE0	; 224
    3fbe:	92 e0       	ldi	r25, 0x02	; 2
    3fc0:	0e 94 28 1c 	call	0x3850	; 0x3850 <USART_u8ReceiveData>
    3fc4:	80 e0       	ldi	r24, 0x00	; 0
    3fc6:	60 e0       	ldi	r22, 0x00	; 0
    3fc8:	0e 94 e0 14 	call	0x29c0	; 0x29c0 <DIO_u8GetPinValue>
    3fcc:	80 93 10 03 	sts	0x0310, r24
    3fd0:	81 30       	cpi	r24, 0x01	; 1
    3fd2:	79 f4       	brne	.+30     	; 0x3ff2 <main+0x36c>
    3fd4:	60 e0       	ldi	r22, 0x00	; 0
    3fd6:	70 e0       	ldi	r23, 0x00	; 0
    3fd8:	80 ec       	ldi	r24, 0xC0	; 192
    3fda:	9f e3       	ldi	r25, 0x3F	; 63
    3fdc:	0e 94 37 1a 	call	0x346e	; 0x346e <TIMER1_vSetCTCA>
    3fe0:	60 91 e2 02 	lds	r22, 0x02E2
    3fe4:	70 91 e3 02 	lds	r23, 0x02E3
    3fe8:	80 91 e4 02 	lds	r24, 0x02E4
    3fec:	0e 94 9a 19 	call	0x3334	; 0x3334 <LED_vOn>
    3ff0:	0e c0       	rjmp	.+28     	; 0x400e <main+0x388>
    3ff2:	60 e0       	ldi	r22, 0x00	; 0
    3ff4:	70 e0       	ldi	r23, 0x00	; 0
    3ff6:	80 e0       	ldi	r24, 0x00	; 0
    3ff8:	90 e4       	ldi	r25, 0x40	; 64
    3ffa:	0e 94 37 1a 	call	0x346e	; 0x346e <TIMER1_vSetCTCA>
    3ffe:	60 91 e2 02 	lds	r22, 0x02E2
    4002:	70 91 e3 02 	lds	r23, 0x02E3
    4006:	80 91 e4 02 	lds	r24, 0x02E4
    400a:	0e 94 7e 19 	call	0x32fc	; 0x32fc <LED_vOff>
    400e:	80 91 e0 02 	lds	r24, 0x02E0
    4012:	81 33       	cpi	r24, 0x31	; 49
    4014:	99 f2       	breq	.-90     	; 0x3fbc <main+0x336>
    4016:	8d 33       	cpi	r24, 0x3D	; 61
    4018:	d1 f5       	brne	.+116    	; 0x408e <main+0x408>
    401a:	80 91 de 02 	lds	r24, 0x02DE
    401e:	35 c0       	rjmp	.+106    	; 0x408a <main+0x404>
    4020:	80 91 de 02 	lds	r24, 0x02DE
    4024:	98 17       	cp	r25, r24
    4026:	99 f5       	brne	.+102    	; 0x408e <main+0x408>
    4028:	0e 94 45 16 	call	0x2c8a	; 0x2c8a <KPD_u8GetPressed>
    402c:	80 93 e0 02 	sts	0x02E0, r24
    4030:	80 e0       	ldi	r24, 0x00	; 0
    4032:	60 e0       	ldi	r22, 0x00	; 0
    4034:	0e 94 e0 14 	call	0x29c0	; 0x29c0 <DIO_u8GetPinValue>
    4038:	80 93 10 03 	sts	0x0310, r24
    403c:	81 30       	cpi	r24, 0x01	; 1
    403e:	79 f4       	brne	.+30     	; 0x405e <main+0x3d8>
    4040:	60 e0       	ldi	r22, 0x00	; 0
    4042:	70 e0       	ldi	r23, 0x00	; 0
    4044:	80 ec       	ldi	r24, 0xC0	; 192
    4046:	9f e3       	ldi	r25, 0x3F	; 63
    4048:	0e 94 37 1a 	call	0x346e	; 0x346e <TIMER1_vSetCTCA>
    404c:	60 91 e2 02 	lds	r22, 0x02E2
    4050:	70 91 e3 02 	lds	r23, 0x02E3
    4054:	80 91 e4 02 	lds	r24, 0x02E4
    4058:	0e 94 9a 19 	call	0x3334	; 0x3334 <LED_vOn>
    405c:	0e c0       	rjmp	.+28     	; 0x407a <main+0x3f4>
    405e:	60 e0       	ldi	r22, 0x00	; 0
    4060:	70 e0       	ldi	r23, 0x00	; 0
    4062:	80 e0       	ldi	r24, 0x00	; 0
    4064:	90 e4       	ldi	r25, 0x40	; 64
    4066:	0e 94 37 1a 	call	0x346e	; 0x346e <TIMER1_vSetCTCA>
    406a:	60 91 e2 02 	lds	r22, 0x02E2
    406e:	70 91 e3 02 	lds	r23, 0x02E3
    4072:	80 91 e4 02 	lds	r24, 0x02E4
    4076:	0e 94 7e 19 	call	0x32fc	; 0x32fc <LED_vOff>
    407a:	80 91 e0 02 	lds	r24, 0x02E0
    407e:	8f 3f       	cpi	r24, 0xFF	; 255
    4080:	99 f2       	breq	.-90     	; 0x4028 <main+0x3a2>
    4082:	8d 33       	cpi	r24, 0x3D	; 61
    4084:	21 f4       	brne	.+8      	; 0x408e <main+0x408>
    4086:	80 91 0d 03 	lds	r24, 0x030D
    408a:	80 93 df 02 	sts	0x02DF, r24
    408e:	80 91 e0 02 	lds	r24, 0x02E0
    4092:	81 33       	cpi	r24, 0x31	; 49
    4094:	09 f4       	brne	.+2      	; 0x4098 <main+0x412>
    4096:	53 cf       	rjmp	.-346    	; 0x3f3e <main+0x2b8>
    4098:	3e cf       	rjmp	.-388    	; 0x3f16 <main+0x290>
    409a:	80 91 11 03 	lds	r24, 0x0311
    409e:	81 33       	cpi	r24, 0x31	; 49
    40a0:	29 f4       	brne	.+10     	; 0x40ac <main+0x426>
    40a2:	60 e0       	ldi	r22, 0x00	; 0
    40a4:	70 e0       	ldi	r23, 0x00	; 0
    40a6:	80 ec       	ldi	r24, 0xC0	; 192
    40a8:	9f e3       	ldi	r25, 0x3F	; 63
    40aa:	06 c0       	rjmp	.+12     	; 0x40b8 <main+0x432>
    40ac:	82 33       	cpi	r24, 0x32	; 50
    40ae:	39 f4       	brne	.+14     	; 0x40be <main+0x438>
    40b0:	60 e0       	ldi	r22, 0x00	; 0
    40b2:	70 e0       	ldi	r23, 0x00	; 0
    40b4:	80 e0       	ldi	r24, 0x00	; 0
    40b6:	90 e4       	ldi	r25, 0x40	; 64
    40b8:	0e 94 42 1a 	call	0x3484	; 0x3484 <TIMER1_vSetCTCB>
    40bc:	21 c0       	rjmp	.+66     	; 0x4100 <main+0x47a>
    40be:	83 33       	cpi	r24, 0x33	; 51
    40c0:	79 f4       	brne	.+30     	; 0x40e0 <main+0x45a>
    40c2:	60 e0       	ldi	r22, 0x00	; 0
    40c4:	70 e0       	ldi	r23, 0x00	; 0
    40c6:	80 ec       	ldi	r24, 0xC0	; 192
    40c8:	9f e3       	ldi	r25, 0x3F	; 63
    40ca:	0e 94 37 1a 	call	0x346e	; 0x346e <TIMER1_vSetCTCA>
    40ce:	60 91 e2 02 	lds	r22, 0x02E2
    40d2:	70 91 e3 02 	lds	r23, 0x02E3
    40d6:	80 91 e4 02 	lds	r24, 0x02E4
    40da:	0e 94 9a 19 	call	0x3334	; 0x3334 <LED_vOn>
    40de:	10 c0       	rjmp	.+32     	; 0x4100 <main+0x47a>
    40e0:	84 33       	cpi	r24, 0x34	; 52
    40e2:	71 f4       	brne	.+28     	; 0x4100 <main+0x47a>
    40e4:	60 e0       	ldi	r22, 0x00	; 0
    40e6:	70 e0       	ldi	r23, 0x00	; 0
    40e8:	80 e0       	ldi	r24, 0x00	; 0
    40ea:	90 e4       	ldi	r25, 0x40	; 64
    40ec:	0e 94 37 1a 	call	0x346e	; 0x346e <TIMER1_vSetCTCA>
    40f0:	60 91 e2 02 	lds	r22, 0x02E2
    40f4:	70 91 e3 02 	lds	r23, 0x02E3
    40f8:	80 91 e4 02 	lds	r24, 0x02E4
    40fc:	0e 94 7e 19 	call	0x32fc	; 0x32fc <LED_vOff>
    4100:	60 e0       	ldi	r22, 0x00	; 0
    4102:	70 e0       	ldi	r23, 0x00	; 0
    4104:	80 e0       	ldi	r24, 0x00	; 0
    4106:	90 e4       	ldi	r25, 0x40	; 64
    4108:	0e 94 42 1a 	call	0x3484	; 0x3484 <TIMER1_vSetCTCB>
    410c:	90 91 df 02 	lds	r25, 0x02DF
    4110:	80 91 0d 03 	lds	r24, 0x030D
    4114:	98 17       	cp	r25, r24
    4116:	91 f5       	brne	.+100    	; 0x417c <main+0x4f6>
    4118:	80 ee       	ldi	r24, 0xE0	; 224
    411a:	92 e0       	ldi	r25, 0x02	; 2
    411c:	0e 94 28 1c 	call	0x3850	; 0x3850 <USART_u8ReceiveData>
    4120:	80 e0       	ldi	r24, 0x00	; 0
    4122:	60 e0       	ldi	r22, 0x00	; 0
    4124:	0e 94 e0 14 	call	0x29c0	; 0x29c0 <DIO_u8GetPinValue>
    4128:	80 93 10 03 	sts	0x0310, r24
    412c:	81 30       	cpi	r24, 0x01	; 1
    412e:	79 f4       	brne	.+30     	; 0x414e <main+0x4c8>
    4130:	60 e0       	ldi	r22, 0x00	; 0
    4132:	70 e0       	ldi	r23, 0x00	; 0
    4134:	80 ec       	ldi	r24, 0xC0	; 192
    4136:	9f e3       	ldi	r25, 0x3F	; 63
    4138:	0e 94 37 1a 	call	0x346e	; 0x346e <TIMER1_vSetCTCA>
    413c:	60 91 e2 02 	lds	r22, 0x02E2
    4140:	70 91 e3 02 	lds	r23, 0x02E3
    4144:	80 91 e4 02 	lds	r24, 0x02E4
    4148:	0e 94 9a 19 	call	0x3334	; 0x3334 <LED_vOn>
    414c:	0e c0       	rjmp	.+28     	; 0x416a <main+0x4e4>
    414e:	60 e0       	ldi	r22, 0x00	; 0
    4150:	70 e0       	ldi	r23, 0x00	; 0
    4152:	80 e0       	ldi	r24, 0x00	; 0
    4154:	90 e4       	ldi	r25, 0x40	; 64
    4156:	0e 94 37 1a 	call	0x346e	; 0x346e <TIMER1_vSetCTCA>
    415a:	60 91 e2 02 	lds	r22, 0x02E2
    415e:	70 91 e3 02 	lds	r23, 0x02E3
    4162:	80 91 e4 02 	lds	r24, 0x02E4
    4166:	0e 94 7e 19 	call	0x32fc	; 0x32fc <LED_vOff>
    416a:	80 91 e0 02 	lds	r24, 0x02E0
    416e:	82 33       	cpi	r24, 0x32	; 50
    4170:	99 f2       	breq	.-90     	; 0x4118 <main+0x492>
    4172:	8d 33       	cpi	r24, 0x3D	; 61
    4174:	d1 f5       	brne	.+116    	; 0x41ea <main+0x564>
    4176:	80 91 de 02 	lds	r24, 0x02DE
    417a:	35 c0       	rjmp	.+106    	; 0x41e6 <main+0x560>
    417c:	80 91 de 02 	lds	r24, 0x02DE
    4180:	98 17       	cp	r25, r24
    4182:	99 f5       	brne	.+102    	; 0x41ea <main+0x564>
    4184:	0e 94 45 16 	call	0x2c8a	; 0x2c8a <KPD_u8GetPressed>
    4188:	80 93 e0 02 	sts	0x02E0, r24
    418c:	80 e0       	ldi	r24, 0x00	; 0
    418e:	60 e0       	ldi	r22, 0x00	; 0
    4190:	0e 94 e0 14 	call	0x29c0	; 0x29c0 <DIO_u8GetPinValue>
    4194:	80 93 10 03 	sts	0x0310, r24
    4198:	81 30       	cpi	r24, 0x01	; 1
    419a:	79 f4       	brne	.+30     	; 0x41ba <main+0x534>
    419c:	60 e0       	ldi	r22, 0x00	; 0
    419e:	70 e0       	ldi	r23, 0x00	; 0
    41a0:	80 ec       	ldi	r24, 0xC0	; 192
    41a2:	9f e3       	ldi	r25, 0x3F	; 63
    41a4:	0e 94 37 1a 	call	0x346e	; 0x346e <TIMER1_vSetCTCA>
    41a8:	60 91 e2 02 	lds	r22, 0x02E2
    41ac:	70 91 e3 02 	lds	r23, 0x02E3
    41b0:	80 91 e4 02 	lds	r24, 0x02E4
    41b4:	0e 94 9a 19 	call	0x3334	; 0x3334 <LED_vOn>
    41b8:	0e c0       	rjmp	.+28     	; 0x41d6 <main+0x550>
    41ba:	60 e0       	ldi	r22, 0x00	; 0
    41bc:	70 e0       	ldi	r23, 0x00	; 0
    41be:	80 e0       	ldi	r24, 0x00	; 0
    41c0:	90 e4       	ldi	r25, 0x40	; 64
    41c2:	0e 94 37 1a 	call	0x346e	; 0x346e <TIMER1_vSetCTCA>
    41c6:	60 91 e2 02 	lds	r22, 0x02E2
    41ca:	70 91 e3 02 	lds	r23, 0x02E3
    41ce:	80 91 e4 02 	lds	r24, 0x02E4
    41d2:	0e 94 7e 19 	call	0x32fc	; 0x32fc <LED_vOff>
    41d6:	80 91 e0 02 	lds	r24, 0x02E0
    41da:	8f 3f       	cpi	r24, 0xFF	; 255
    41dc:	99 f2       	breq	.-90     	; 0x4184 <main+0x4fe>
    41de:	8d 33       	cpi	r24, 0x3D	; 61
    41e0:	21 f4       	brne	.+8      	; 0x41ea <main+0x564>
    41e2:	80 91 0d 03 	lds	r24, 0x030D
    41e6:	80 93 df 02 	sts	0x02DF, r24
    41ea:	80 91 e0 02 	lds	r24, 0x02E0
    41ee:	82 33       	cpi	r24, 0x32	; 50
    41f0:	09 f4       	brne	.+2      	; 0x41f4 <main+0x56e>
    41f2:	53 cf       	rjmp	.-346    	; 0x409a <main+0x414>
    41f4:	8d 33       	cpi	r24, 0x3D	; 61
    41f6:	09 f4       	brne	.+2      	; 0x41fa <main+0x574>
    41f8:	50 cf       	rjmp	.-352    	; 0x409a <main+0x414>
    41fa:	8d ce       	rjmp	.-742    	; 0x3f16 <main+0x290>
    41fc:	80 91 11 03 	lds	r24, 0x0311
    4200:	81 33       	cpi	r24, 0x31	; 49
    4202:	29 f4       	brne	.+10     	; 0x420e <main+0x588>
    4204:	60 e0       	ldi	r22, 0x00	; 0
    4206:	70 e0       	ldi	r23, 0x00	; 0
    4208:	80 ec       	ldi	r24, 0xC0	; 192
    420a:	9f e3       	ldi	r25, 0x3F	; 63
    420c:	06 c0       	rjmp	.+12     	; 0x421a <main+0x594>
    420e:	82 33       	cpi	r24, 0x32	; 50
    4210:	39 f4       	brne	.+14     	; 0x4220 <main+0x59a>
    4212:	60 e0       	ldi	r22, 0x00	; 0
    4214:	70 e0       	ldi	r23, 0x00	; 0
    4216:	80 e0       	ldi	r24, 0x00	; 0
    4218:	90 e4       	ldi	r25, 0x40	; 64
    421a:	0e 94 42 1a 	call	0x3484	; 0x3484 <TIMER1_vSetCTCB>
    421e:	21 c0       	rjmp	.+66     	; 0x4262 <main+0x5dc>
    4220:	83 33       	cpi	r24, 0x33	; 51
    4222:	79 f4       	brne	.+30     	; 0x4242 <main+0x5bc>
    4224:	60 e0       	ldi	r22, 0x00	; 0
    4226:	70 e0       	ldi	r23, 0x00	; 0
    4228:	80 ec       	ldi	r24, 0xC0	; 192
    422a:	9f e3       	ldi	r25, 0x3F	; 63
    422c:	0e 94 37 1a 	call	0x346e	; 0x346e <TIMER1_vSetCTCA>
    4230:	60 91 e2 02 	lds	r22, 0x02E2
    4234:	70 91 e3 02 	lds	r23, 0x02E3
    4238:	80 91 e4 02 	lds	r24, 0x02E4
    423c:	0e 94 9a 19 	call	0x3334	; 0x3334 <LED_vOn>
    4240:	10 c0       	rjmp	.+32     	; 0x4262 <main+0x5dc>
    4242:	84 33       	cpi	r24, 0x34	; 52
    4244:	71 f4       	brne	.+28     	; 0x4262 <main+0x5dc>
    4246:	60 e0       	ldi	r22, 0x00	; 0
    4248:	70 e0       	ldi	r23, 0x00	; 0
    424a:	80 e0       	ldi	r24, 0x00	; 0
    424c:	90 e4       	ldi	r25, 0x40	; 64
    424e:	0e 94 37 1a 	call	0x346e	; 0x346e <TIMER1_vSetCTCA>
    4252:	60 91 e2 02 	lds	r22, 0x02E2
    4256:	70 91 e3 02 	lds	r23, 0x02E3
    425a:	80 91 e4 02 	lds	r24, 0x02E4
    425e:	0e 94 7e 19 	call	0x32fc	; 0x32fc <LED_vOff>
    4262:	60 e0       	ldi	r22, 0x00	; 0
    4264:	70 e0       	ldi	r23, 0x00	; 0
    4266:	80 ec       	ldi	r24, 0xC0	; 192
    4268:	9f e3       	ldi	r25, 0x3F	; 63
    426a:	0e 94 37 1a 	call	0x346e	; 0x346e <TIMER1_vSetCTCA>
    426e:	60 91 e2 02 	lds	r22, 0x02E2
    4272:	70 91 e3 02 	lds	r23, 0x02E3
    4276:	80 91 e4 02 	lds	r24, 0x02E4
    427a:	0e 94 9a 19 	call	0x3334	; 0x3334 <LED_vOn>
    427e:	90 91 df 02 	lds	r25, 0x02DF
    4282:	80 91 0d 03 	lds	r24, 0x030D
    4286:	98 17       	cp	r25, r24
    4288:	69 f4       	brne	.+26     	; 0x42a4 <main+0x61e>
    428a:	80 ee       	ldi	r24, 0xE0	; 224
    428c:	92 e0       	ldi	r25, 0x02	; 2
    428e:	0e 94 28 1c 	call	0x3850	; 0x3850 <USART_u8ReceiveData>
    4292:	80 91 e0 02 	lds	r24, 0x02E0
    4296:	83 33       	cpi	r24, 0x33	; 51
    4298:	c1 f3       	breq	.-16     	; 0x428a <main+0x604>
    429a:	8d 33       	cpi	r24, 0x3D	; 61
    429c:	99 f4       	brne	.+38     	; 0x42c4 <main+0x63e>
    429e:	80 91 de 02 	lds	r24, 0x02DE
    42a2:	0e c0       	rjmp	.+28     	; 0x42c0 <main+0x63a>
    42a4:	80 91 de 02 	lds	r24, 0x02DE
    42a8:	98 17       	cp	r25, r24
    42aa:	61 f4       	brne	.+24     	; 0x42c4 <main+0x63e>
    42ac:	0e 94 45 16 	call	0x2c8a	; 0x2c8a <KPD_u8GetPressed>
    42b0:	80 93 e0 02 	sts	0x02E0, r24
    42b4:	8f 3f       	cpi	r24, 0xFF	; 255
    42b6:	d1 f3       	breq	.-12     	; 0x42ac <main+0x626>
    42b8:	8d 33       	cpi	r24, 0x3D	; 61
    42ba:	21 f4       	brne	.+8      	; 0x42c4 <main+0x63e>
    42bc:	80 91 0d 03 	lds	r24, 0x030D
    42c0:	80 93 df 02 	sts	0x02DF, r24
    42c4:	80 91 e0 02 	lds	r24, 0x02E0
    42c8:	83 33       	cpi	r24, 0x33	; 51
    42ca:	09 f4       	brne	.+2      	; 0x42ce <main+0x648>
    42cc:	97 cf       	rjmp	.-210    	; 0x41fc <main+0x576>
    42ce:	8d 33       	cpi	r24, 0x3D	; 61
    42d0:	09 f4       	brne	.+2      	; 0x42d4 <main+0x64e>
    42d2:	94 cf       	rjmp	.-216    	; 0x41fc <main+0x576>
    42d4:	20 ce       	rjmp	.-960    	; 0x3f16 <main+0x290>
    42d6:	80 91 11 03 	lds	r24, 0x0311
    42da:	81 33       	cpi	r24, 0x31	; 49
    42dc:	29 f4       	brne	.+10     	; 0x42e8 <main+0x662>
    42de:	60 e0       	ldi	r22, 0x00	; 0
    42e0:	70 e0       	ldi	r23, 0x00	; 0
    42e2:	80 ec       	ldi	r24, 0xC0	; 192
    42e4:	9f e3       	ldi	r25, 0x3F	; 63
    42e6:	06 c0       	rjmp	.+12     	; 0x42f4 <main+0x66e>
    42e8:	82 33       	cpi	r24, 0x32	; 50
    42ea:	39 f4       	brne	.+14     	; 0x42fa <main+0x674>
    42ec:	60 e0       	ldi	r22, 0x00	; 0
    42ee:	70 e0       	ldi	r23, 0x00	; 0
    42f0:	80 e0       	ldi	r24, 0x00	; 0
    42f2:	90 e4       	ldi	r25, 0x40	; 64
    42f4:	0e 94 42 1a 	call	0x3484	; 0x3484 <TIMER1_vSetCTCB>
    42f8:	21 c0       	rjmp	.+66     	; 0x433c <main+0x6b6>
    42fa:	83 33       	cpi	r24, 0x33	; 51
    42fc:	79 f4       	brne	.+30     	; 0x431c <main+0x696>
    42fe:	60 e0       	ldi	r22, 0x00	; 0
    4300:	70 e0       	ldi	r23, 0x00	; 0
    4302:	80 ec       	ldi	r24, 0xC0	; 192
    4304:	9f e3       	ldi	r25, 0x3F	; 63
    4306:	0e 94 37 1a 	call	0x346e	; 0x346e <TIMER1_vSetCTCA>
    430a:	60 91 e2 02 	lds	r22, 0x02E2
    430e:	70 91 e3 02 	lds	r23, 0x02E3
    4312:	80 91 e4 02 	lds	r24, 0x02E4
    4316:	0e 94 9a 19 	call	0x3334	; 0x3334 <LED_vOn>
    431a:	10 c0       	rjmp	.+32     	; 0x433c <main+0x6b6>
    431c:	84 33       	cpi	r24, 0x34	; 52
    431e:	71 f4       	brne	.+28     	; 0x433c <main+0x6b6>
    4320:	60 e0       	ldi	r22, 0x00	; 0
    4322:	70 e0       	ldi	r23, 0x00	; 0
    4324:	80 e0       	ldi	r24, 0x00	; 0
    4326:	90 e4       	ldi	r25, 0x40	; 64
    4328:	0e 94 37 1a 	call	0x346e	; 0x346e <TIMER1_vSetCTCA>
    432c:	60 91 e2 02 	lds	r22, 0x02E2
    4330:	70 91 e3 02 	lds	r23, 0x02E3
    4334:	80 91 e4 02 	lds	r24, 0x02E4
    4338:	0e 94 7e 19 	call	0x32fc	; 0x32fc <LED_vOff>
    433c:	60 e0       	ldi	r22, 0x00	; 0
    433e:	70 e0       	ldi	r23, 0x00	; 0
    4340:	80 e0       	ldi	r24, 0x00	; 0
    4342:	90 e4       	ldi	r25, 0x40	; 64
    4344:	0e 94 37 1a 	call	0x346e	; 0x346e <TIMER1_vSetCTCA>
    4348:	60 91 e2 02 	lds	r22, 0x02E2
    434c:	70 91 e3 02 	lds	r23, 0x02E3
    4350:	80 91 e4 02 	lds	r24, 0x02E4
    4354:	0e 94 7e 19 	call	0x32fc	; 0x32fc <LED_vOff>
    4358:	90 91 df 02 	lds	r25, 0x02DF
    435c:	80 91 0d 03 	lds	r24, 0x030D
    4360:	98 17       	cp	r25, r24
    4362:	69 f4       	brne	.+26     	; 0x437e <main+0x6f8>
    4364:	80 ee       	ldi	r24, 0xE0	; 224
    4366:	92 e0       	ldi	r25, 0x02	; 2
    4368:	0e 94 28 1c 	call	0x3850	; 0x3850 <USART_u8ReceiveData>
    436c:	80 91 e0 02 	lds	r24, 0x02E0
    4370:	84 33       	cpi	r24, 0x34	; 52
    4372:	c1 f3       	breq	.-16     	; 0x4364 <main+0x6de>
    4374:	8d 33       	cpi	r24, 0x3D	; 61
    4376:	99 f4       	brne	.+38     	; 0x439e <main+0x718>
    4378:	80 91 de 02 	lds	r24, 0x02DE
    437c:	0e c0       	rjmp	.+28     	; 0x439a <main+0x714>
    437e:	80 91 de 02 	lds	r24, 0x02DE
    4382:	98 17       	cp	r25, r24
    4384:	61 f4       	brne	.+24     	; 0x439e <main+0x718>
    4386:	0e 94 45 16 	call	0x2c8a	; 0x2c8a <KPD_u8GetPressed>
    438a:	80 93 e0 02 	sts	0x02E0, r24
    438e:	8f 3f       	cpi	r24, 0xFF	; 255
    4390:	d1 f3       	breq	.-12     	; 0x4386 <main+0x700>
    4392:	8d 33       	cpi	r24, 0x3D	; 61
    4394:	21 f4       	brne	.+8      	; 0x439e <main+0x718>
    4396:	80 91 0d 03 	lds	r24, 0x030D
    439a:	80 93 df 02 	sts	0x02DF, r24
    439e:	80 91 e0 02 	lds	r24, 0x02E0
    43a2:	84 33       	cpi	r24, 0x34	; 52
    43a4:	09 f4       	brne	.+2      	; 0x43a8 <main+0x722>
    43a6:	97 cf       	rjmp	.-210    	; 0x42d6 <main+0x650>
    43a8:	8d 33       	cpi	r24, 0x3D	; 61
    43aa:	09 f4       	brne	.+2      	; 0x43ae <main+0x728>
    43ac:	94 cf       	rjmp	.-216    	; 0x42d6 <main+0x650>
    43ae:	b3 cd       	rjmp	.-1178   	; 0x3f16 <main+0x290>
    43b0:	90 91 df 02 	lds	r25, 0x02DF
    43b4:	80 91 0d 03 	lds	r24, 0x030D
    43b8:	98 17       	cp	r25, r24
    43ba:	51 f5       	brne	.+84     	; 0x4410 <main+0x78a>
    43bc:	80 ee       	ldi	r24, 0xE0	; 224
    43be:	92 e0       	ldi	r25, 0x02	; 2
    43c0:	0e 94 28 1c 	call	0x3850	; 0x3850 <USART_u8ReceiveData>
    43c4:	80 e0       	ldi	r24, 0x00	; 0
    43c6:	60 e0       	ldi	r22, 0x00	; 0
    43c8:	0e 94 e0 14 	call	0x29c0	; 0x29c0 <DIO_u8GetPinValue>
    43cc:	80 93 10 03 	sts	0x0310, r24
    43d0:	81 30       	cpi	r24, 0x01	; 1
    43d2:	79 f4       	brne	.+30     	; 0x43f2 <main+0x76c>
    43d4:	60 e0       	ldi	r22, 0x00	; 0
    43d6:	70 e0       	ldi	r23, 0x00	; 0
    43d8:	80 ec       	ldi	r24, 0xC0	; 192
    43da:	9f e3       	ldi	r25, 0x3F	; 63
    43dc:	0e 94 37 1a 	call	0x346e	; 0x346e <TIMER1_vSetCTCA>
    43e0:	60 91 e2 02 	lds	r22, 0x02E2
    43e4:	70 91 e3 02 	lds	r23, 0x02E3
    43e8:	80 91 e4 02 	lds	r24, 0x02E4
    43ec:	0e 94 9a 19 	call	0x3334	; 0x3334 <LED_vOn>
    43f0:	e5 cf       	rjmp	.-54     	; 0x43bc <main+0x736>
    43f2:	60 e0       	ldi	r22, 0x00	; 0
    43f4:	70 e0       	ldi	r23, 0x00	; 0
    43f6:	80 e0       	ldi	r24, 0x00	; 0
    43f8:	90 e4       	ldi	r25, 0x40	; 64
    43fa:	0e 94 37 1a 	call	0x346e	; 0x346e <TIMER1_vSetCTCA>
    43fe:	60 91 e2 02 	lds	r22, 0x02E2
    4402:	70 91 e3 02 	lds	r23, 0x02E3
    4406:	80 91 e4 02 	lds	r24, 0x02E4
    440a:	0e 94 7e 19 	call	0x32fc	; 0x32fc <LED_vOff>
    440e:	d6 cf       	rjmp	.-84     	; 0x43bc <main+0x736>
    4410:	80 91 de 02 	lds	r24, 0x02DE
    4414:	98 17       	cp	r25, r24
    4416:	09 f0       	breq	.+2      	; 0x441a <main+0x794>
    4418:	7e cd       	rjmp	.-1284   	; 0x3f16 <main+0x290>
    441a:	0e 94 45 16 	call	0x2c8a	; 0x2c8a <KPD_u8GetPressed>
    441e:	80 93 e0 02 	sts	0x02E0, r24
    4422:	80 e0       	ldi	r24, 0x00	; 0
    4424:	60 e0       	ldi	r22, 0x00	; 0
    4426:	0e 94 e0 14 	call	0x29c0	; 0x29c0 <DIO_u8GetPinValue>
    442a:	80 93 10 03 	sts	0x0310, r24
    442e:	81 30       	cpi	r24, 0x01	; 1
    4430:	79 f4       	brne	.+30     	; 0x4450 <main+0x7ca>
    4432:	60 e0       	ldi	r22, 0x00	; 0
    4434:	70 e0       	ldi	r23, 0x00	; 0
    4436:	80 ec       	ldi	r24, 0xC0	; 192
    4438:	9f e3       	ldi	r25, 0x3F	; 63
    443a:	0e 94 37 1a 	call	0x346e	; 0x346e <TIMER1_vSetCTCA>
    443e:	60 91 e2 02 	lds	r22, 0x02E2
    4442:	70 91 e3 02 	lds	r23, 0x02E3
    4446:	80 91 e4 02 	lds	r24, 0x02E4
    444a:	0e 94 9a 19 	call	0x3334	; 0x3334 <LED_vOn>
    444e:	e5 cf       	rjmp	.-54     	; 0x441a <main+0x794>
    4450:	60 e0       	ldi	r22, 0x00	; 0
    4452:	70 e0       	ldi	r23, 0x00	; 0
    4454:	80 e0       	ldi	r24, 0x00	; 0
    4456:	90 e4       	ldi	r25, 0x40	; 64
    4458:	0e 94 37 1a 	call	0x346e	; 0x346e <TIMER1_vSetCTCA>
    445c:	60 91 e2 02 	lds	r22, 0x02E2
    4460:	70 91 e3 02 	lds	r23, 0x02E3
    4464:	80 91 e4 02 	lds	r24, 0x02E4
    4468:	0e 94 7e 19 	call	0x32fc	; 0x32fc <LED_vOff>
    446c:	d6 cf       	rjmp	.-84     	; 0x441a <main+0x794>

0000446e <CHECK_USER_PASS>:
    446e:	ef 92       	push	r14
    4470:	ff 92       	push	r15
    4472:	0f 93       	push	r16
    4474:	1f 93       	push	r17
    4476:	cf 93       	push	r28
    4478:	df 93       	push	r29
    447a:	87 ee       	ldi	r24, 0xE7	; 231
    447c:	90 e0       	ldi	r25, 0x00	; 0
    447e:	0e 94 0a 19 	call	0x3214	; 0x3214 <LCD_vSendString>
    4482:	80 e1       	ldi	r24, 0x10	; 16
    4484:	97 e2       	ldi	r25, 0x27	; 39
    4486:	28 ec       	ldi	r18, 0xC8	; 200
    4488:	30 e0       	ldi	r19, 0x00	; 0
    448a:	f9 01       	movw	r30, r18
    448c:	31 97       	sbiw	r30, 0x01	; 1
    448e:	f1 f7       	brne	.-4      	; 0x448c <CHECK_USER_PASS+0x1e>
    4490:	01 97       	sbiw	r24, 0x01	; 1
    4492:	d9 f7       	brne	.-10     	; 0x448a <CHECK_USER_PASS+0x1c>
    4494:	0e 94 1f 17 	call	0x2e3e	; 0x2e3e <LCD_vClearScreen>
    4498:	8e ee       	ldi	r24, 0xEE	; 238
    449a:	90 e0       	ldi	r25, 0x00	; 0
    449c:	0e 94 0a 19 	call	0x3214	; 0x3214 <LCD_vSendString>
    44a0:	80 e1       	ldi	r24, 0x10	; 16
    44a2:	97 e2       	ldi	r25, 0x27	; 39
    44a4:	28 ec       	ldi	r18, 0xC8	; 200
    44a6:	30 e0       	ldi	r19, 0x00	; 0
    44a8:	f9 01       	movw	r30, r18
    44aa:	31 97       	sbiw	r30, 0x01	; 1
    44ac:	f1 f7       	brne	.-4      	; 0x44aa <CHECK_USER_PASS+0x3c>
    44ae:	01 97       	sbiw	r24, 0x01	; 1
    44b0:	d9 f7       	brne	.-10     	; 0x44a8 <CHECK_USER_PASS+0x3a>
    44b2:	0e 94 1f 17 	call	0x2e3e	; 0x2e3e <LCD_vClearScreen>
    44b6:	8e ef       	ldi	r24, 0xFE	; 254
    44b8:	90 e0       	ldi	r25, 0x00	; 0
    44ba:	0e 94 0a 19 	call	0x3214	; 0x3214 <LCD_vSendString>
    44be:	80 91 e8 02 	lds	r24, 0x02E8
    44c2:	80 5d       	subi	r24, 0xD0	; 208
    44c4:	0e 94 4b 17 	call	0x2e96	; 0x2e96 <LCD_vSendData>
    44c8:	80 e1       	ldi	r24, 0x10	; 16
    44ca:	97 e2       	ldi	r25, 0x27	; 39
    44cc:	28 ec       	ldi	r18, 0xC8	; 200
    44ce:	30 e0       	ldi	r19, 0x00	; 0
    44d0:	f9 01       	movw	r30, r18
    44d2:	31 97       	sbiw	r30, 0x01	; 1
    44d4:	f1 f7       	brne	.-4      	; 0x44d2 <CHECK_USER_PASS+0x64>
    44d6:	01 97       	sbiw	r24, 0x01	; 1
    44d8:	d9 f7       	brne	.-10     	; 0x44d0 <CHECK_USER_PASS+0x62>
    44da:	0e 94 1f 17 	call	0x2e3e	; 0x2e3e <LCD_vClearScreen>
    44de:	83 e0       	ldi	r24, 0x03	; 3
    44e0:	91 e0       	ldi	r25, 0x01	; 1
    44e2:	0e 94 0a 19 	call	0x3214	; 0x3214 <LCD_vSendString>
    44e6:	82 e0       	ldi	r24, 0x02	; 2
    44e8:	61 e0       	ldi	r22, 0x01	; 1
    44ea:	0e 94 27 17 	call	0x2e4e	; 0x2e4e <LCD_vSetPosition>
    44ee:	c2 e1       	ldi	r28, 0x12	; 18
    44f0:	d3 e0       	ldi	r29, 0x03	; 3
    44f2:	1f ef       	ldi	r17, 0xFF	; 255
    44f4:	90 91 df 02 	lds	r25, 0x02DF
    44f8:	80 91 0d 03 	lds	r24, 0x030D
    44fc:	98 17       	cp	r25, r24
    44fe:	69 f4       	brne	.+26     	; 0x451a <CHECK_USER_PASS+0xac>
    4500:	80 ee       	ldi	r24, 0xE0	; 224
    4502:	92 e0       	ldi	r25, 0x02	; 2
    4504:	0e 94 28 1c 	call	0x3850	; 0x3850 <USART_u8ReceiveData>
    4508:	80 91 e0 02 	lds	r24, 0x02E0
    450c:	8f 3f       	cpi	r24, 0xFF	; 255
    450e:	c1 f3       	breq	.-16     	; 0x4500 <CHECK_USER_PASS+0x92>
    4510:	8d 33       	cpi	r24, 0x3D	; 61
    4512:	99 f4       	brne	.+38     	; 0x453a <CHECK_USER_PASS+0xcc>
    4514:	80 91 de 02 	lds	r24, 0x02DE
    4518:	0e c0       	rjmp	.+28     	; 0x4536 <CHECK_USER_PASS+0xc8>
    451a:	80 91 de 02 	lds	r24, 0x02DE
    451e:	98 17       	cp	r25, r24
    4520:	61 f4       	brne	.+24     	; 0x453a <CHECK_USER_PASS+0xcc>
    4522:	0e 94 45 16 	call	0x2c8a	; 0x2c8a <KPD_u8GetPressed>
    4526:	80 93 e0 02 	sts	0x02E0, r24
    452a:	8f 3f       	cpi	r24, 0xFF	; 255
    452c:	d1 f3       	breq	.-12     	; 0x4522 <CHECK_USER_PASS+0xb4>
    452e:	8d 33       	cpi	r24, 0x3D	; 61
    4530:	21 f4       	brne	.+8      	; 0x453a <CHECK_USER_PASS+0xcc>
    4532:	80 91 0d 03 	lds	r24, 0x030D
    4536:	80 93 df 02 	sts	0x02DF, r24
    453a:	80 91 e0 02 	lds	r24, 0x02E0
    453e:	8d 33       	cpi	r24, 0x3D	; 61
    4540:	99 f0       	breq	.+38     	; 0x4568 <CHECK_USER_PASS+0xfa>
    4542:	8f 33       	cpi	r24, 0x3F	; 63
    4544:	29 f4       	brne	.+10     	; 0x4550 <CHECK_USER_PASS+0xe2>
    4546:	80 e2       	ldi	r24, 0x20	; 32
    4548:	0e 94 4b 17 	call	0x2e96	; 0x2e96 <LCD_vSendData>
    454c:	80 e2       	ldi	r24, 0x20	; 32
    454e:	04 c0       	rjmp	.+8      	; 0x4558 <CHECK_USER_PASS+0xea>
    4550:	0e 94 4b 17 	call	0x2e96	; 0x2e96 <LCD_vSendData>
    4554:	80 91 e0 02 	lds	r24, 0x02E0
    4558:	88 83       	st	Y, r24
    455a:	10 93 e0 02 	sts	0x02E0, r17
    455e:	21 96       	adiw	r28, 0x01	; 1
    4560:	83 e0       	ldi	r24, 0x03	; 3
    4562:	c2 32       	cpi	r28, 0x22	; 34
    4564:	d8 07       	cpc	r29, r24
    4566:	31 f6       	brne	.-116    	; 0x44f4 <CHECK_USER_PASS+0x86>
    4568:	0e 94 1f 17 	call	0x2e3e	; 0x2e3e <LCD_vClearScreen>
    456c:	80 e1       	ldi	r24, 0x10	; 16
    456e:	91 e0       	ldi	r25, 0x01	; 1
    4570:	0e 94 0a 19 	call	0x3214	; 0x3214 <LCD_vSendString>
    4574:	80 e1       	ldi	r24, 0x10	; 16
    4576:	97 e2       	ldi	r25, 0x27	; 39
    4578:	28 ec       	ldi	r18, 0xC8	; 200
    457a:	30 e0       	ldi	r19, 0x00	; 0
    457c:	f9 01       	movw	r30, r18
    457e:	31 97       	sbiw	r30, 0x01	; 1
    4580:	f1 f7       	brne	.-4      	; 0x457e <CHECK_USER_PASS+0x110>
    4582:	01 97       	sbiw	r24, 0x01	; 1
    4584:	d9 f7       	brne	.-10     	; 0x457c <CHECK_USER_PASS+0x10e>
    4586:	0e 94 1f 17 	call	0x2e3e	; 0x2e3e <LCD_vClearScreen>
    458a:	8e ef       	ldi	r24, 0xFE	; 254
    458c:	90 e0       	ldi	r25, 0x00	; 0
    458e:	0e 94 0a 19 	call	0x3214	; 0x3214 <LCD_vSendString>
    4592:	80 91 e8 02 	lds	r24, 0x02E8
    4596:	80 5d       	subi	r24, 0xD0	; 208
    4598:	0e 94 4b 17 	call	0x2e96	; 0x2e96 <LCD_vSendData>
    459c:	80 e1       	ldi	r24, 0x10	; 16
    459e:	97 e2       	ldi	r25, 0x27	; 39
    45a0:	28 ec       	ldi	r18, 0xC8	; 200
    45a2:	30 e0       	ldi	r19, 0x00	; 0
    45a4:	f9 01       	movw	r30, r18
    45a6:	31 97       	sbiw	r30, 0x01	; 1
    45a8:	f1 f7       	brne	.-4      	; 0x45a6 <CHECK_USER_PASS+0x138>
    45aa:	01 97       	sbiw	r24, 0x01	; 1
    45ac:	d9 f7       	brne	.-10     	; 0x45a4 <CHECK_USER_PASS+0x136>
    45ae:	0e 94 1f 17 	call	0x2e3e	; 0x2e3e <LCD_vClearScreen>
    45b2:	80 e2       	ldi	r24, 0x20	; 32
    45b4:	91 e0       	ldi	r25, 0x01	; 1
    45b6:	0e 94 0a 19 	call	0x3214	; 0x3214 <LCD_vSendString>
    45ba:	82 e0       	ldi	r24, 0x02	; 2
    45bc:	61 e0       	ldi	r22, 0x01	; 1
    45be:	0e 94 27 17 	call	0x2e4e	; 0x2e4e <LCD_vSetPosition>
    45c2:	c2 e2       	ldi	r28, 0x22	; 34
    45c4:	d3 e0       	ldi	r29, 0x03	; 3
    45c6:	10 e0       	ldi	r17, 0x00	; 0
    45c8:	88 ec       	ldi	r24, 0xC8	; 200
    45ca:	e8 2e       	mov	r14, r24
    45cc:	f1 2c       	mov	r15, r1
    45ce:	0f ef       	ldi	r16, 0xFF	; 255
    45d0:	90 91 df 02 	lds	r25, 0x02DF
    45d4:	80 91 0d 03 	lds	r24, 0x030D
    45d8:	98 17       	cp	r25, r24
    45da:	69 f4       	brne	.+26     	; 0x45f6 <CHECK_USER_PASS+0x188>
    45dc:	80 ee       	ldi	r24, 0xE0	; 224
    45de:	92 e0       	ldi	r25, 0x02	; 2
    45e0:	0e 94 28 1c 	call	0x3850	; 0x3850 <USART_u8ReceiveData>
    45e4:	80 91 e0 02 	lds	r24, 0x02E0
    45e8:	8f 3f       	cpi	r24, 0xFF	; 255
    45ea:	c1 f3       	breq	.-16     	; 0x45dc <CHECK_USER_PASS+0x16e>
    45ec:	8d 33       	cpi	r24, 0x3D	; 61
    45ee:	99 f4       	brne	.+38     	; 0x4616 <CHECK_USER_PASS+0x1a8>
    45f0:	80 91 de 02 	lds	r24, 0x02DE
    45f4:	0e c0       	rjmp	.+28     	; 0x4612 <CHECK_USER_PASS+0x1a4>
    45f6:	80 91 de 02 	lds	r24, 0x02DE
    45fa:	98 17       	cp	r25, r24
    45fc:	61 f4       	brne	.+24     	; 0x4616 <CHECK_USER_PASS+0x1a8>
    45fe:	0e 94 45 16 	call	0x2c8a	; 0x2c8a <KPD_u8GetPressed>
    4602:	80 93 e0 02 	sts	0x02E0, r24
    4606:	8f 3f       	cpi	r24, 0xFF	; 255
    4608:	d1 f3       	breq	.-12     	; 0x45fe <CHECK_USER_PASS+0x190>
    460a:	8d 33       	cpi	r24, 0x3D	; 61
    460c:	21 f4       	brne	.+8      	; 0x4616 <CHECK_USER_PASS+0x1a8>
    460e:	80 91 0d 03 	lds	r24, 0x030D
    4612:	80 93 df 02 	sts	0x02DF, r24
    4616:	80 91 e0 02 	lds	r24, 0x02E0
    461a:	0e 94 4b 17 	call	0x2e96	; 0x2e96 <LCD_vSendData>
    461e:	84 ec       	ldi	r24, 0xC4	; 196
    4620:	99 e0       	ldi	r25, 0x09	; 9
    4622:	f7 01       	movw	r30, r14
    4624:	31 97       	sbiw	r30, 0x01	; 1
    4626:	f1 f7       	brne	.-4      	; 0x4624 <CHECK_USER_PASS+0x1b6>
    4628:	01 97       	sbiw	r24, 0x01	; 1
    462a:	d9 f7       	brne	.-10     	; 0x4622 <CHECK_USER_PASS+0x1b4>
    462c:	1f 5f       	subi	r17, 0xFF	; 255
    462e:	82 e0       	ldi	r24, 0x02	; 2
    4630:	61 2f       	mov	r22, r17
    4632:	0e 94 27 17 	call	0x2e4e	; 0x2e4e <LCD_vSetPosition>
    4636:	8a e2       	ldi	r24, 0x2A	; 42
    4638:	0e 94 4b 17 	call	0x2e96	; 0x2e96 <LCD_vSendData>
    463c:	80 91 e0 02 	lds	r24, 0x02E0
    4640:	89 93       	st	Y+, r24
    4642:	00 93 e0 02 	sts	0x02E0, r16
    4646:	14 30       	cpi	r17, 0x04	; 4
    4648:	09 f0       	breq	.+2      	; 0x464c <CHECK_USER_PASS+0x1de>
    464a:	c2 cf       	rjmp	.-124    	; 0x45d0 <CHECK_USER_PASS+0x162>
    464c:	80 91 e8 02 	lds	r24, 0x02E8
    4650:	81 50       	subi	r24, 0x01	; 1
    4652:	80 93 e8 02 	sts	0x02E8, r24
    4656:	0e 94 1f 17 	call	0x2e3e	; 0x2e3e <LCD_vClearScreen>
    465a:	00 93 e0 02 	sts	0x02E0, r16
    465e:	df 91       	pop	r29
    4660:	cf 91       	pop	r28
    4662:	1f 91       	pop	r17
    4664:	0f 91       	pop	r16
    4666:	ff 90       	pop	r15
    4668:	ef 90       	pop	r14
    466a:	08 95       	ret

0000466c <CHECK_PASS>:
    466c:	ef 92       	push	r14
    466e:	ff 92       	push	r15
    4670:	0f 93       	push	r16
    4672:	1f 93       	push	r17
    4674:	cf 93       	push	r28
    4676:	df 93       	push	r29
    4678:	80 e1       	ldi	r24, 0x10	; 16
    467a:	91 e0       	ldi	r25, 0x01	; 1
    467c:	0e 94 0a 19 	call	0x3214	; 0x3214 <LCD_vSendString>
    4680:	80 e1       	ldi	r24, 0x10	; 16
    4682:	97 e2       	ldi	r25, 0x27	; 39
    4684:	28 ec       	ldi	r18, 0xC8	; 200
    4686:	30 e0       	ldi	r19, 0x00	; 0
    4688:	f9 01       	movw	r30, r18
    468a:	31 97       	sbiw	r30, 0x01	; 1
    468c:	f1 f7       	brne	.-4      	; 0x468a <CHECK_PASS+0x1e>
    468e:	01 97       	sbiw	r24, 0x01	; 1
    4690:	d9 f7       	brne	.-10     	; 0x4688 <CHECK_PASS+0x1c>
    4692:	0e 94 1f 17 	call	0x2e3e	; 0x2e3e <LCD_vClearScreen>
    4696:	8e ef       	ldi	r24, 0xFE	; 254
    4698:	90 e0       	ldi	r25, 0x00	; 0
    469a:	0e 94 0a 19 	call	0x3214	; 0x3214 <LCD_vSendString>
    469e:	80 91 e8 02 	lds	r24, 0x02E8
    46a2:	80 5d       	subi	r24, 0xD0	; 208
    46a4:	0e 94 4b 17 	call	0x2e96	; 0x2e96 <LCD_vSendData>
    46a8:	88 e8       	ldi	r24, 0x88	; 136
    46aa:	93 e1       	ldi	r25, 0x13	; 19
    46ac:	28 ec       	ldi	r18, 0xC8	; 200
    46ae:	30 e0       	ldi	r19, 0x00	; 0
    46b0:	f9 01       	movw	r30, r18
    46b2:	31 97       	sbiw	r30, 0x01	; 1
    46b4:	f1 f7       	brne	.-4      	; 0x46b2 <CHECK_PASS+0x46>
    46b6:	01 97       	sbiw	r24, 0x01	; 1
    46b8:	d9 f7       	brne	.-10     	; 0x46b0 <CHECK_PASS+0x44>
    46ba:	0e 94 1f 17 	call	0x2e3e	; 0x2e3e <LCD_vClearScreen>
    46be:	80 e2       	ldi	r24, 0x20	; 32
    46c0:	91 e0       	ldi	r25, 0x01	; 1
    46c2:	0e 94 0a 19 	call	0x3214	; 0x3214 <LCD_vSendString>
    46c6:	82 e0       	ldi	r24, 0x02	; 2
    46c8:	61 e0       	ldi	r22, 0x01	; 1
    46ca:	0e 94 27 17 	call	0x2e4e	; 0x2e4e <LCD_vSetPosition>
    46ce:	c2 e2       	ldi	r28, 0x22	; 34
    46d0:	d3 e0       	ldi	r29, 0x03	; 3
    46d2:	10 e0       	ldi	r17, 0x00	; 0
    46d4:	98 ec       	ldi	r25, 0xC8	; 200
    46d6:	e9 2e       	mov	r14, r25
    46d8:	f1 2c       	mov	r15, r1
    46da:	0f ef       	ldi	r16, 0xFF	; 255
    46dc:	90 91 df 02 	lds	r25, 0x02DF
    46e0:	80 91 0d 03 	lds	r24, 0x030D
    46e4:	98 17       	cp	r25, r24
    46e6:	69 f4       	brne	.+26     	; 0x4702 <CHECK_PASS+0x96>
    46e8:	80 ee       	ldi	r24, 0xE0	; 224
    46ea:	92 e0       	ldi	r25, 0x02	; 2
    46ec:	0e 94 28 1c 	call	0x3850	; 0x3850 <USART_u8ReceiveData>
    46f0:	80 91 e0 02 	lds	r24, 0x02E0
    46f4:	8f 3f       	cpi	r24, 0xFF	; 255
    46f6:	c1 f3       	breq	.-16     	; 0x46e8 <CHECK_PASS+0x7c>
    46f8:	8d 33       	cpi	r24, 0x3D	; 61
    46fa:	99 f4       	brne	.+38     	; 0x4722 <CHECK_PASS+0xb6>
    46fc:	80 91 de 02 	lds	r24, 0x02DE
    4700:	0e c0       	rjmp	.+28     	; 0x471e <CHECK_PASS+0xb2>
    4702:	80 91 de 02 	lds	r24, 0x02DE
    4706:	98 17       	cp	r25, r24
    4708:	61 f4       	brne	.+24     	; 0x4722 <CHECK_PASS+0xb6>
    470a:	0e 94 45 16 	call	0x2c8a	; 0x2c8a <KPD_u8GetPressed>
    470e:	80 93 e0 02 	sts	0x02E0, r24
    4712:	8f 3f       	cpi	r24, 0xFF	; 255
    4714:	d1 f3       	breq	.-12     	; 0x470a <CHECK_PASS+0x9e>
    4716:	8d 33       	cpi	r24, 0x3D	; 61
    4718:	21 f4       	brne	.+8      	; 0x4722 <CHECK_PASS+0xb6>
    471a:	80 91 0d 03 	lds	r24, 0x030D
    471e:	80 93 df 02 	sts	0x02DF, r24
    4722:	80 91 e0 02 	lds	r24, 0x02E0
    4726:	0e 94 4b 17 	call	0x2e96	; 0x2e96 <LCD_vSendData>
    472a:	84 ec       	ldi	r24, 0xC4	; 196
    472c:	99 e0       	ldi	r25, 0x09	; 9
    472e:	f7 01       	movw	r30, r14
    4730:	31 97       	sbiw	r30, 0x01	; 1
    4732:	f1 f7       	brne	.-4      	; 0x4730 <CHECK_PASS+0xc4>
    4734:	01 97       	sbiw	r24, 0x01	; 1
    4736:	d9 f7       	brne	.-10     	; 0x472e <CHECK_PASS+0xc2>
    4738:	1f 5f       	subi	r17, 0xFF	; 255
    473a:	82 e0       	ldi	r24, 0x02	; 2
    473c:	61 2f       	mov	r22, r17
    473e:	0e 94 27 17 	call	0x2e4e	; 0x2e4e <LCD_vSetPosition>
    4742:	8a e2       	ldi	r24, 0x2A	; 42
    4744:	0e 94 4b 17 	call	0x2e96	; 0x2e96 <LCD_vSendData>
    4748:	80 91 e0 02 	lds	r24, 0x02E0
    474c:	89 93       	st	Y+, r24
    474e:	00 93 e0 02 	sts	0x02E0, r16
    4752:	14 30       	cpi	r17, 0x04	; 4
    4754:	09 f0       	breq	.+2      	; 0x4758 <CHECK_PASS+0xec>
    4756:	c2 cf       	rjmp	.-124    	; 0x46dc <CHECK_PASS+0x70>
    4758:	80 91 e8 02 	lds	r24, 0x02E8
    475c:	81 50       	subi	r24, 0x01	; 1
    475e:	80 93 e8 02 	sts	0x02E8, r24
    4762:	0e 94 1f 17 	call	0x2e3e	; 0x2e3e <LCD_vClearScreen>
    4766:	00 93 e0 02 	sts	0x02E0, r16
    476a:	df 91       	pop	r29
    476c:	cf 91       	pop	r28
    476e:	1f 91       	pop	r17
    4770:	0f 91       	pop	r16
    4772:	ff 90       	pop	r15
    4774:	ef 90       	pop	r14
    4776:	08 95       	ret

00004778 <CHECK_USER>:
    4778:	0f 93       	push	r16
    477a:	1f 93       	push	r17
    477c:	cf 93       	push	r28
    477e:	df 93       	push	r29
    4780:	8d e2       	ldi	r24, 0x2D	; 45
    4782:	91 e0       	ldi	r25, 0x01	; 1
    4784:	0e 94 0a 19 	call	0x3214	; 0x3214 <LCD_vSendString>
    4788:	80 e1       	ldi	r24, 0x10	; 16
    478a:	97 e2       	ldi	r25, 0x27	; 39
    478c:	28 ec       	ldi	r18, 0xC8	; 200
    478e:	30 e0       	ldi	r19, 0x00	; 0
    4790:	f9 01       	movw	r30, r18
    4792:	31 97       	sbiw	r30, 0x01	; 1
    4794:	f1 f7       	brne	.-4      	; 0x4792 <CHECK_USER+0x1a>
    4796:	01 97       	sbiw	r24, 0x01	; 1
    4798:	d9 f7       	brne	.-10     	; 0x4790 <CHECK_USER+0x18>
    479a:	0e 94 1f 17 	call	0x2e3e	; 0x2e3e <LCD_vClearScreen>
    479e:	8e ef       	ldi	r24, 0xFE	; 254
    47a0:	90 e0       	ldi	r25, 0x00	; 0
    47a2:	0e 94 0a 19 	call	0x3214	; 0x3214 <LCD_vSendString>
    47a6:	80 91 e8 02 	lds	r24, 0x02E8
    47aa:	80 5d       	subi	r24, 0xD0	; 208
    47ac:	0e 94 4b 17 	call	0x2e96	; 0x2e96 <LCD_vSendData>
    47b0:	80 e1       	ldi	r24, 0x10	; 16
    47b2:	97 e2       	ldi	r25, 0x27	; 39
    47b4:	28 ec       	ldi	r18, 0xC8	; 200
    47b6:	30 e0       	ldi	r19, 0x00	; 0
    47b8:	f9 01       	movw	r30, r18
    47ba:	31 97       	sbiw	r30, 0x01	; 1
    47bc:	f1 f7       	brne	.-4      	; 0x47ba <CHECK_USER+0x42>
    47be:	01 97       	sbiw	r24, 0x01	; 1
    47c0:	d9 f7       	brne	.-10     	; 0x47b8 <CHECK_USER+0x40>
    47c2:	0e 94 1f 17 	call	0x2e3e	; 0x2e3e <LCD_vClearScreen>
    47c6:	89 e3       	ldi	r24, 0x39	; 57
    47c8:	91 e0       	ldi	r25, 0x01	; 1
    47ca:	0e 94 0a 19 	call	0x3214	; 0x3214 <LCD_vSendString>
    47ce:	82 e0       	ldi	r24, 0x02	; 2
    47d0:	61 e0       	ldi	r22, 0x01	; 1
    47d2:	0e 94 27 17 	call	0x2e4e	; 0x2e4e <LCD_vSetPosition>
    47d6:	c2 e1       	ldi	r28, 0x12	; 18
    47d8:	d3 e0       	ldi	r29, 0x03	; 3
    47da:	10 e0       	ldi	r17, 0x00	; 0
    47dc:	0f ef       	ldi	r16, 0xFF	; 255
    47de:	90 91 df 02 	lds	r25, 0x02DF
    47e2:	80 91 0d 03 	lds	r24, 0x030D
    47e6:	98 17       	cp	r25, r24
    47e8:	69 f4       	brne	.+26     	; 0x4804 <CHECK_USER+0x8c>
    47ea:	80 ee       	ldi	r24, 0xE0	; 224
    47ec:	92 e0       	ldi	r25, 0x02	; 2
    47ee:	0e 94 28 1c 	call	0x3850	; 0x3850 <USART_u8ReceiveData>
    47f2:	80 91 e0 02 	lds	r24, 0x02E0
    47f6:	8f 3f       	cpi	r24, 0xFF	; 255
    47f8:	c1 f3       	breq	.-16     	; 0x47ea <CHECK_USER+0x72>
    47fa:	8d 33       	cpi	r24, 0x3D	; 61
    47fc:	99 f4       	brne	.+38     	; 0x4824 <CHECK_USER+0xac>
    47fe:	80 91 de 02 	lds	r24, 0x02DE
    4802:	0e c0       	rjmp	.+28     	; 0x4820 <CHECK_USER+0xa8>
    4804:	80 91 de 02 	lds	r24, 0x02DE
    4808:	98 17       	cp	r25, r24
    480a:	61 f4       	brne	.+24     	; 0x4824 <CHECK_USER+0xac>
    480c:	0e 94 45 16 	call	0x2c8a	; 0x2c8a <KPD_u8GetPressed>
    4810:	80 93 e0 02 	sts	0x02E0, r24
    4814:	8f 3f       	cpi	r24, 0xFF	; 255
    4816:	d1 f3       	breq	.-12     	; 0x480c <CHECK_USER+0x94>
    4818:	8d 33       	cpi	r24, 0x3D	; 61
    481a:	21 f4       	brne	.+8      	; 0x4824 <CHECK_USER+0xac>
    481c:	80 91 0d 03 	lds	r24, 0x030D
    4820:	80 93 df 02 	sts	0x02DF, r24
    4824:	80 91 e0 02 	lds	r24, 0x02E0
    4828:	8d 33       	cpi	r24, 0x3D	; 61
    482a:	61 f4       	brne	.+24     	; 0x4844 <CHECK_USER+0xcc>
    482c:	81 2f       	mov	r24, r17
    482e:	9f ef       	ldi	r25, 0xFF	; 255
    4830:	06 c0       	rjmp	.+12     	; 0x483e <CHECK_USER+0xc6>
    4832:	e8 2f       	mov	r30, r24
    4834:	f0 e0       	ldi	r31, 0x00	; 0
    4836:	ee 5e       	subi	r30, 0xEE	; 238
    4838:	fc 4f       	sbci	r31, 0xFC	; 252
    483a:	90 83       	st	Z, r25
    483c:	8f 5f       	subi	r24, 0xFF	; 255
    483e:	80 31       	cpi	r24, 0x10	; 16
    4840:	c0 f3       	brcs	.-16     	; 0x4832 <CHECK_USER+0xba>
    4842:	13 c0       	rjmp	.+38     	; 0x486a <CHECK_USER+0xf2>
    4844:	8f 33       	cpi	r24, 0x3F	; 63
    4846:	29 f4       	brne	.+10     	; 0x4852 <CHECK_USER+0xda>
    4848:	80 e2       	ldi	r24, 0x20	; 32
    484a:	0e 94 4b 17 	call	0x2e96	; 0x2e96 <LCD_vSendData>
    484e:	80 e2       	ldi	r24, 0x20	; 32
    4850:	04 c0       	rjmp	.+8      	; 0x485a <CHECK_USER+0xe2>
    4852:	0e 94 4b 17 	call	0x2e96	; 0x2e96 <LCD_vSendData>
    4856:	80 91 e0 02 	lds	r24, 0x02E0
    485a:	88 83       	st	Y, r24
    485c:	00 93 e0 02 	sts	0x02E0, r16
    4860:	1f 5f       	subi	r17, 0xFF	; 255
    4862:	21 96       	adiw	r28, 0x01	; 1
    4864:	10 31       	cpi	r17, 0x10	; 16
    4866:	09 f0       	breq	.+2      	; 0x486a <CHECK_USER+0xf2>
    4868:	ba cf       	rjmp	.-140    	; 0x47de <CHECK_USER+0x66>
    486a:	80 91 e8 02 	lds	r24, 0x02E8
    486e:	81 50       	subi	r24, 0x01	; 1
    4870:	80 93 e8 02 	sts	0x02E8, r24
    4874:	0e 94 1f 17 	call	0x2e3e	; 0x2e3e <LCD_vClearScreen>
    4878:	8f ef       	ldi	r24, 0xFF	; 255
    487a:	80 93 e0 02 	sts	0x02E0, r24
    487e:	df 91       	pop	r29
    4880:	cf 91       	pop	r28
    4882:	1f 91       	pop	r17
    4884:	0f 91       	pop	r16
    4886:	08 95       	ret

00004888 <TEST_PASS>:
    4888:	ef 92       	push	r14
    488a:	ff 92       	push	r15
    488c:	0f 93       	push	r16
    488e:	1f 93       	push	r17
    4890:	cf 93       	push	r28
    4892:	df 93       	push	r29
    4894:	82 e4       	ldi	r24, 0x42	; 66
    4896:	91 e0       	ldi	r25, 0x01	; 1
    4898:	0e 94 0a 19 	call	0x3214	; 0x3214 <LCD_vSendString>
    489c:	82 e0       	ldi	r24, 0x02	; 2
    489e:	61 e0       	ldi	r22, 0x01	; 1
    48a0:	0e 94 27 17 	call	0x2e4e	; 0x2e4e <LCD_vSetPosition>
    48a4:	c2 e2       	ldi	r28, 0x22	; 34
    48a6:	d3 e0       	ldi	r29, 0x03	; 3
    48a8:	10 e0       	ldi	r17, 0x00	; 0
    48aa:	28 ec       	ldi	r18, 0xC8	; 200
    48ac:	e2 2e       	mov	r14, r18
    48ae:	f1 2c       	mov	r15, r1
    48b0:	0f ef       	ldi	r16, 0xFF	; 255
    48b2:	90 91 df 02 	lds	r25, 0x02DF
    48b6:	80 91 0d 03 	lds	r24, 0x030D
    48ba:	98 17       	cp	r25, r24
    48bc:	69 f4       	brne	.+26     	; 0x48d8 <TEST_PASS+0x50>
    48be:	80 ee       	ldi	r24, 0xE0	; 224
    48c0:	92 e0       	ldi	r25, 0x02	; 2
    48c2:	0e 94 28 1c 	call	0x3850	; 0x3850 <USART_u8ReceiveData>
    48c6:	80 91 e0 02 	lds	r24, 0x02E0
    48ca:	8f 3f       	cpi	r24, 0xFF	; 255
    48cc:	c1 f3       	breq	.-16     	; 0x48be <TEST_PASS+0x36>
    48ce:	8d 33       	cpi	r24, 0x3D	; 61
    48d0:	99 f4       	brne	.+38     	; 0x48f8 <TEST_PASS+0x70>
    48d2:	80 91 de 02 	lds	r24, 0x02DE
    48d6:	0e c0       	rjmp	.+28     	; 0x48f4 <TEST_PASS+0x6c>
    48d8:	80 91 de 02 	lds	r24, 0x02DE
    48dc:	98 17       	cp	r25, r24
    48de:	61 f4       	brne	.+24     	; 0x48f8 <TEST_PASS+0x70>
    48e0:	0e 94 45 16 	call	0x2c8a	; 0x2c8a <KPD_u8GetPressed>
    48e4:	80 93 e0 02 	sts	0x02E0, r24
    48e8:	8f 3f       	cpi	r24, 0xFF	; 255
    48ea:	d1 f3       	breq	.-12     	; 0x48e0 <TEST_PASS+0x58>
    48ec:	8d 33       	cpi	r24, 0x3D	; 61
    48ee:	21 f4       	brne	.+8      	; 0x48f8 <TEST_PASS+0x70>
    48f0:	80 91 0d 03 	lds	r24, 0x030D
    48f4:	80 93 df 02 	sts	0x02DF, r24
    48f8:	80 91 e0 02 	lds	r24, 0x02E0
    48fc:	0e 94 4b 17 	call	0x2e96	; 0x2e96 <LCD_vSendData>
    4900:	84 ec       	ldi	r24, 0xC4	; 196
    4902:	99 e0       	ldi	r25, 0x09	; 9
    4904:	f7 01       	movw	r30, r14
    4906:	31 97       	sbiw	r30, 0x01	; 1
    4908:	f1 f7       	brne	.-4      	; 0x4906 <TEST_PASS+0x7e>
    490a:	01 97       	sbiw	r24, 0x01	; 1
    490c:	d9 f7       	brne	.-10     	; 0x4904 <TEST_PASS+0x7c>
    490e:	1f 5f       	subi	r17, 0xFF	; 255
    4910:	82 e0       	ldi	r24, 0x02	; 2
    4912:	61 2f       	mov	r22, r17
    4914:	0e 94 27 17 	call	0x2e4e	; 0x2e4e <LCD_vSetPosition>
    4918:	8a e2       	ldi	r24, 0x2A	; 42
    491a:	0e 94 4b 17 	call	0x2e96	; 0x2e96 <LCD_vSendData>
    491e:	80 91 e0 02 	lds	r24, 0x02E0
    4922:	89 93       	st	Y+, r24
    4924:	00 93 e0 02 	sts	0x02E0, r16
    4928:	14 30       	cpi	r17, 0x04	; 4
    492a:	09 f0       	breq	.+2      	; 0x492e <TEST_PASS+0xa6>
    492c:	c2 cf       	rjmp	.-124    	; 0x48b2 <TEST_PASS+0x2a>
    492e:	0e 94 1f 17 	call	0x2e3e	; 0x2e3e <LCD_vClearScreen>
    4932:	00 93 e0 02 	sts	0x02E0, r16
    4936:	df 91       	pop	r29
    4938:	cf 91       	pop	r28
    493a:	1f 91       	pop	r17
    493c:	0f 91       	pop	r16
    493e:	ff 90       	pop	r15
    4940:	ef 90       	pop	r14
    4942:	08 95       	ret

00004944 <TEST_USER>:
    4944:	0f 93       	push	r16
    4946:	1f 93       	push	r17
    4948:	cf 93       	push	r28
    494a:	df 93       	push	r29
    494c:	81 e5       	ldi	r24, 0x51	; 81
    494e:	91 e0       	ldi	r25, 0x01	; 1
    4950:	0e 94 0a 19 	call	0x3214	; 0x3214 <LCD_vSendString>
    4954:	82 e0       	ldi	r24, 0x02	; 2
    4956:	61 e0       	ldi	r22, 0x01	; 1
    4958:	0e 94 27 17 	call	0x2e4e	; 0x2e4e <LCD_vSetPosition>
    495c:	c2 e1       	ldi	r28, 0x12	; 18
    495e:	d3 e0       	ldi	r29, 0x03	; 3
    4960:	10 e0       	ldi	r17, 0x00	; 0
    4962:	0f ef       	ldi	r16, 0xFF	; 255
    4964:	90 91 df 02 	lds	r25, 0x02DF
    4968:	80 91 0d 03 	lds	r24, 0x030D
    496c:	98 17       	cp	r25, r24
    496e:	69 f4       	brne	.+26     	; 0x498a <TEST_USER+0x46>
    4970:	80 ee       	ldi	r24, 0xE0	; 224
    4972:	92 e0       	ldi	r25, 0x02	; 2
    4974:	0e 94 28 1c 	call	0x3850	; 0x3850 <USART_u8ReceiveData>
    4978:	80 91 e0 02 	lds	r24, 0x02E0
    497c:	8f 3f       	cpi	r24, 0xFF	; 255
    497e:	c1 f3       	breq	.-16     	; 0x4970 <TEST_USER+0x2c>
    4980:	8d 33       	cpi	r24, 0x3D	; 61
    4982:	99 f4       	brne	.+38     	; 0x49aa <TEST_USER+0x66>
    4984:	80 91 de 02 	lds	r24, 0x02DE
    4988:	0e c0       	rjmp	.+28     	; 0x49a6 <TEST_USER+0x62>
    498a:	80 91 de 02 	lds	r24, 0x02DE
    498e:	98 17       	cp	r25, r24
    4990:	61 f4       	brne	.+24     	; 0x49aa <TEST_USER+0x66>
    4992:	0e 94 45 16 	call	0x2c8a	; 0x2c8a <KPD_u8GetPressed>
    4996:	80 93 e0 02 	sts	0x02E0, r24
    499a:	8f 3f       	cpi	r24, 0xFF	; 255
    499c:	d1 f3       	breq	.-12     	; 0x4992 <TEST_USER+0x4e>
    499e:	8d 33       	cpi	r24, 0x3D	; 61
    49a0:	21 f4       	brne	.+8      	; 0x49aa <TEST_USER+0x66>
    49a2:	80 91 0d 03 	lds	r24, 0x030D
    49a6:	80 93 df 02 	sts	0x02DF, r24
    49aa:	80 91 e0 02 	lds	r24, 0x02E0
    49ae:	8d 33       	cpi	r24, 0x3D	; 61
    49b0:	81 f4       	brne	.+32     	; 0x49d2 <TEST_USER+0x8e>
    49b2:	81 2f       	mov	r24, r17
    49b4:	9f ef       	ldi	r25, 0xFF	; 255
    49b6:	06 c0       	rjmp	.+12     	; 0x49c4 <TEST_USER+0x80>
    49b8:	e8 2f       	mov	r30, r24
    49ba:	f0 e0       	ldi	r31, 0x00	; 0
    49bc:	ee 5e       	subi	r30, 0xEE	; 238
    49be:	fc 4f       	sbci	r31, 0xFC	; 252
    49c0:	90 83       	st	Z, r25
    49c2:	8f 5f       	subi	r24, 0xFF	; 255
    49c4:	80 31       	cpi	r24, 0x10	; 16
    49c6:	c0 f3       	brcs	.-16     	; 0x49b8 <TEST_USER+0x74>
    49c8:	20 e1       	ldi	r18, 0x10	; 16
    49ca:	37 e2       	ldi	r19, 0x27	; 39
    49cc:	48 ec       	ldi	r20, 0xC8	; 200
    49ce:	50 e0       	ldi	r21, 0x00	; 0
    49d0:	14 c0       	rjmp	.+40     	; 0x49fa <TEST_USER+0xb6>
    49d2:	8f 33       	cpi	r24, 0x3F	; 63
    49d4:	29 f4       	brne	.+10     	; 0x49e0 <TEST_USER+0x9c>
    49d6:	80 e2       	ldi	r24, 0x20	; 32
    49d8:	0e 94 4b 17 	call	0x2e96	; 0x2e96 <LCD_vSendData>
    49dc:	80 e2       	ldi	r24, 0x20	; 32
    49de:	04 c0       	rjmp	.+8      	; 0x49e8 <TEST_USER+0xa4>
    49e0:	0e 94 4b 17 	call	0x2e96	; 0x2e96 <LCD_vSendData>
    49e4:	80 91 e0 02 	lds	r24, 0x02E0
    49e8:	88 83       	st	Y, r24
    49ea:	00 93 e0 02 	sts	0x02E0, r16
    49ee:	1f 5f       	subi	r17, 0xFF	; 255
    49f0:	21 96       	adiw	r28, 0x01	; 1
    49f2:	10 31       	cpi	r17, 0x10	; 16
    49f4:	09 f0       	breq	.+2      	; 0x49f8 <TEST_USER+0xb4>
    49f6:	b6 cf       	rjmp	.-148    	; 0x4964 <TEST_USER+0x20>
    49f8:	e7 cf       	rjmp	.-50     	; 0x49c8 <TEST_USER+0x84>
    49fa:	ca 01       	movw	r24, r20
    49fc:	01 97       	sbiw	r24, 0x01	; 1
    49fe:	f1 f7       	brne	.-4      	; 0x49fc <TEST_USER+0xb8>
    4a00:	21 50       	subi	r18, 0x01	; 1
    4a02:	30 40       	sbci	r19, 0x00	; 0
    4a04:	d1 f7       	brne	.-12     	; 0x49fa <TEST_USER+0xb6>
    4a06:	0e 94 1f 17 	call	0x2e3e	; 0x2e3e <LCD_vClearScreen>
    4a0a:	8f ef       	ldi	r24, 0xFF	; 255
    4a0c:	80 93 e0 02 	sts	0x02E0, r24
    4a10:	df 91       	pop	r29
    4a12:	cf 91       	pop	r28
    4a14:	1f 91       	pop	r17
    4a16:	0f 91       	pop	r16
    4a18:	08 95       	ret

00004a1a <ENTER_PASS>:
    4a1a:	ff 92       	push	r15
    4a1c:	0f 93       	push	r16
    4a1e:	1f 93       	push	r17
    4a20:	cf 93       	push	r28
    4a22:	df 93       	push	r29
    4a24:	8c e5       	ldi	r24, 0x5C	; 92
    4a26:	91 e0       	ldi	r25, 0x01	; 1
    4a28:	0e 94 0a 19 	call	0x3214	; 0x3214 <LCD_vSendString>
    4a2c:	82 e0       	ldi	r24, 0x02	; 2
    4a2e:	61 e0       	ldi	r22, 0x01	; 1
    4a30:	0e 94 27 17 	call	0x2e4e	; 0x2e4e <LCD_vSetPosition>
    4a34:	c0 e1       	ldi	r28, 0x10	; 16
    4a36:	d0 e0       	ldi	r29, 0x00	; 0
    4a38:	08 ec       	ldi	r16, 0xC8	; 200
    4a3a:	10 e0       	ldi	r17, 0x00	; 0
    4a3c:	ff 24       	eor	r15, r15
    4a3e:	fa 94       	dec	r15
    4a40:	90 91 df 02 	lds	r25, 0x02DF
    4a44:	80 91 0d 03 	lds	r24, 0x030D
    4a48:	98 17       	cp	r25, r24
    4a4a:	69 f4       	brne	.+26     	; 0x4a66 <ENTER_PASS+0x4c>
    4a4c:	80 ee       	ldi	r24, 0xE0	; 224
    4a4e:	92 e0       	ldi	r25, 0x02	; 2
    4a50:	0e 94 28 1c 	call	0x3850	; 0x3850 <USART_u8ReceiveData>
    4a54:	80 91 e0 02 	lds	r24, 0x02E0
    4a58:	8f 3f       	cpi	r24, 0xFF	; 255
    4a5a:	c1 f3       	breq	.-16     	; 0x4a4c <ENTER_PASS+0x32>
    4a5c:	8d 33       	cpi	r24, 0x3D	; 61
    4a5e:	99 f4       	brne	.+38     	; 0x4a86 <ENTER_PASS+0x6c>
    4a60:	80 91 de 02 	lds	r24, 0x02DE
    4a64:	0e c0       	rjmp	.+28     	; 0x4a82 <ENTER_PASS+0x68>
    4a66:	80 91 de 02 	lds	r24, 0x02DE
    4a6a:	98 17       	cp	r25, r24
    4a6c:	61 f4       	brne	.+24     	; 0x4a86 <ENTER_PASS+0x6c>
    4a6e:	0e 94 45 16 	call	0x2c8a	; 0x2c8a <KPD_u8GetPressed>
    4a72:	80 93 e0 02 	sts	0x02E0, r24
    4a76:	8f 3f       	cpi	r24, 0xFF	; 255
    4a78:	d1 f3       	breq	.-12     	; 0x4a6e <ENTER_PASS+0x54>
    4a7a:	8d 33       	cpi	r24, 0x3D	; 61
    4a7c:	21 f4       	brne	.+8      	; 0x4a86 <ENTER_PASS+0x6c>
    4a7e:	80 91 0d 03 	lds	r24, 0x030D
    4a82:	80 93 df 02 	sts	0x02DF, r24
    4a86:	80 91 e0 02 	lds	r24, 0x02E0
    4a8a:	0e 94 4b 17 	call	0x2e96	; 0x2e96 <LCD_vSendData>
    4a8e:	84 ec       	ldi	r24, 0xC4	; 196
    4a90:	99 e0       	ldi	r25, 0x09	; 9
    4a92:	f8 01       	movw	r30, r16
    4a94:	31 97       	sbiw	r30, 0x01	; 1
    4a96:	f1 f7       	brne	.-4      	; 0x4a94 <ENTER_PASS+0x7a>
    4a98:	01 97       	sbiw	r24, 0x01	; 1
    4a9a:	d9 f7       	brne	.-10     	; 0x4a92 <ENTER_PASS+0x78>
    4a9c:	ce 01       	movw	r24, r28
    4a9e:	8f 50       	subi	r24, 0x0F	; 15
    4aa0:	68 2f       	mov	r22, r24
    4aa2:	82 e0       	ldi	r24, 0x02	; 2
    4aa4:	0e 94 27 17 	call	0x2e4e	; 0x2e4e <LCD_vSetPosition>
    4aa8:	8a e2       	ldi	r24, 0x2A	; 42
    4aaa:	0e 94 4b 17 	call	0x2e96	; 0x2e96 <LCD_vSendData>
    4aae:	ce 01       	movw	r24, r28
    4ab0:	60 91 e0 02 	lds	r22, 0x02E0
    4ab4:	0e 94 38 16 	call	0x2c70	; 0x2c70 <EEROM_VoidSendDataToAddress>
    4ab8:	fe 01       	movw	r30, r28
    4aba:	ee 5e       	subi	r30, 0xEE	; 238
    4abc:	fc 4f       	sbci	r31, 0xFC	; 252
    4abe:	80 91 e0 02 	lds	r24, 0x02E0
    4ac2:	80 83       	st	Z, r24
    4ac4:	f0 92 e0 02 	sts	0x02E0, r15
    4ac8:	21 96       	adiw	r28, 0x01	; 1
    4aca:	c4 31       	cpi	r28, 0x14	; 20
    4acc:	d1 05       	cpc	r29, r1
    4ace:	09 f0       	breq	.+2      	; 0x4ad2 <ENTER_PASS+0xb8>
    4ad0:	b7 cf       	rjmp	.-146    	; 0x4a40 <ENTER_PASS+0x26>
    4ad2:	0e 94 1f 17 	call	0x2e3e	; 0x2e3e <LCD_vClearScreen>
    4ad6:	f0 92 e0 02 	sts	0x02E0, r15
    4ada:	df 91       	pop	r29
    4adc:	cf 91       	pop	r28
    4ade:	1f 91       	pop	r17
    4ae0:	0f 91       	pop	r16
    4ae2:	ff 90       	pop	r15
    4ae4:	08 95       	ret

00004ae6 <ENTER_USER>:
    4ae6:	df 92       	push	r13
    4ae8:	ef 92       	push	r14
    4aea:	ff 92       	push	r15
    4aec:	0f 93       	push	r16
    4aee:	1f 93       	push	r17
    4af0:	cf 93       	push	r28
    4af2:	df 93       	push	r29
    4af4:	8b e6       	ldi	r24, 0x6B	; 107
    4af6:	91 e0       	ldi	r25, 0x01	; 1
    4af8:	0e 94 0a 19 	call	0x3214	; 0x3214 <LCD_vSendString>
    4afc:	82 e0       	ldi	r24, 0x02	; 2
    4afe:	61 e0       	ldi	r22, 0x01	; 1
    4b00:	0e 94 27 17 	call	0x2e4e	; 0x2e4e <LCD_vSetPosition>
    4b04:	81 e7       	ldi	r24, 0x71	; 113
    4b06:	91 e0       	ldi	r25, 0x01	; 1
    4b08:	0e 94 0a 19 	call	0x3214	; 0x3214 <LCD_vSendString>
    4b0c:	80 e1       	ldi	r24, 0x10	; 16
    4b0e:	97 e2       	ldi	r25, 0x27	; 39
    4b10:	28 ec       	ldi	r18, 0xC8	; 200
    4b12:	30 e0       	ldi	r19, 0x00	; 0
    4b14:	f9 01       	movw	r30, r18
    4b16:	31 97       	sbiw	r30, 0x01	; 1
    4b18:	f1 f7       	brne	.-4      	; 0x4b16 <ENTER_USER+0x30>
    4b1a:	01 97       	sbiw	r24, 0x01	; 1
    4b1c:	d9 f7       	brne	.-10     	; 0x4b14 <ENTER_USER+0x2e>
    4b1e:	0e 94 1f 17 	call	0x2e3e	; 0x2e3e <LCD_vClearScreen>
    4b22:	8b e7       	ldi	r24, 0x7B	; 123
    4b24:	91 e0       	ldi	r25, 0x01	; 1
    4b26:	0e 94 0a 19 	call	0x3214	; 0x3214 <LCD_vSendString>
    4b2a:	82 e0       	ldi	r24, 0x02	; 2
    4b2c:	61 e0       	ldi	r22, 0x01	; 1
    4b2e:	0e 94 27 17 	call	0x2e4e	; 0x2e4e <LCD_vSetPosition>
    4b32:	32 e1       	ldi	r19, 0x12	; 18
    4b34:	e3 2e       	mov	r14, r19
    4b36:	33 e0       	ldi	r19, 0x03	; 3
    4b38:	f3 2e       	mov	r15, r19
    4b3a:	c0 e0       	ldi	r28, 0x00	; 0
    4b3c:	d0 e0       	ldi	r29, 0x00	; 0
    4b3e:	dd 24       	eor	r13, r13
    4b40:	da 94       	dec	r13
    4b42:	0c 2f       	mov	r16, r28
    4b44:	90 91 df 02 	lds	r25, 0x02DF
    4b48:	80 91 0d 03 	lds	r24, 0x030D
    4b4c:	98 17       	cp	r25, r24
    4b4e:	69 f4       	brne	.+26     	; 0x4b6a <ENTER_USER+0x84>
    4b50:	80 ee       	ldi	r24, 0xE0	; 224
    4b52:	92 e0       	ldi	r25, 0x02	; 2
    4b54:	0e 94 28 1c 	call	0x3850	; 0x3850 <USART_u8ReceiveData>
    4b58:	80 91 e0 02 	lds	r24, 0x02E0
    4b5c:	8f 3f       	cpi	r24, 0xFF	; 255
    4b5e:	c1 f3       	breq	.-16     	; 0x4b50 <ENTER_USER+0x6a>
    4b60:	8d 33       	cpi	r24, 0x3D	; 61
    4b62:	99 f4       	brne	.+38     	; 0x4b8a <ENTER_USER+0xa4>
    4b64:	80 91 de 02 	lds	r24, 0x02DE
    4b68:	0e c0       	rjmp	.+28     	; 0x4b86 <ENTER_USER+0xa0>
    4b6a:	80 91 de 02 	lds	r24, 0x02DE
    4b6e:	98 17       	cp	r25, r24
    4b70:	61 f4       	brne	.+24     	; 0x4b8a <ENTER_USER+0xa4>
    4b72:	0e 94 45 16 	call	0x2c8a	; 0x2c8a <KPD_u8GetPressed>
    4b76:	80 93 e0 02 	sts	0x02E0, r24
    4b7a:	8f 3f       	cpi	r24, 0xFF	; 255
    4b7c:	d1 f3       	breq	.-12     	; 0x4b72 <ENTER_USER+0x8c>
    4b7e:	8d 33       	cpi	r24, 0x3D	; 61
    4b80:	21 f4       	brne	.+8      	; 0x4b8a <ENTER_USER+0xa4>
    4b82:	80 91 0d 03 	lds	r24, 0x030D
    4b86:	80 93 df 02 	sts	0x02DF, r24
    4b8a:	10 91 e0 02 	lds	r17, 0x02E0
    4b8e:	1d 33       	cpi	r17, 0x3D	; 61
    4b90:	89 f4       	brne	.+34     	; 0x4bb4 <ENTER_USER+0xce>
    4b92:	10 2f       	mov	r17, r16
    4b94:	0c c0       	rjmp	.+24     	; 0x4bae <ENTER_USER+0xc8>
    4b96:	81 2f       	mov	r24, r17
    4b98:	90 e0       	ldi	r25, 0x00	; 0
    4b9a:	6f ef       	ldi	r22, 0xFF	; 255
    4b9c:	0e 94 38 16 	call	0x2c70	; 0x2c70 <EEROM_VoidSendDataToAddress>
    4ba0:	e1 2f       	mov	r30, r17
    4ba2:	f0 e0       	ldi	r31, 0x00	; 0
    4ba4:	ee 5e       	subi	r30, 0xEE	; 238
    4ba6:	fc 4f       	sbci	r31, 0xFC	; 252
    4ba8:	8f ef       	ldi	r24, 0xFF	; 255
    4baa:	80 83       	st	Z, r24
    4bac:	1f 5f       	subi	r17, 0xFF	; 255
    4bae:	10 31       	cpi	r17, 0x10	; 16
    4bb0:	90 f3       	brcs	.-28     	; 0x4b96 <ENTER_USER+0xb0>
    4bb2:	1e c0       	rjmp	.+60     	; 0x4bf0 <ENTER_USER+0x10a>
    4bb4:	10 32       	cpi	r17, 0x20	; 32
    4bb6:	41 f4       	brne	.+16     	; 0x4bc8 <ENTER_USER+0xe2>
    4bb8:	80 e2       	ldi	r24, 0x20	; 32
    4bba:	0e 94 4b 17 	call	0x2e96	; 0x2e96 <LCD_vSendData>
    4bbe:	f7 01       	movw	r30, r14
    4bc0:	10 83       	st	Z, r17
    4bc2:	ce 01       	movw	r24, r28
    4bc4:	60 e2       	ldi	r22, 0x20	; 32
    4bc6:	08 c0       	rjmp	.+16     	; 0x4bd8 <ENTER_USER+0xf2>
    4bc8:	81 2f       	mov	r24, r17
    4bca:	0e 94 4b 17 	call	0x2e96	; 0x2e96 <LCD_vSendData>
    4bce:	60 91 e0 02 	lds	r22, 0x02E0
    4bd2:	f7 01       	movw	r30, r14
    4bd4:	60 83       	st	Z, r22
    4bd6:	ce 01       	movw	r24, r28
    4bd8:	0e 94 38 16 	call	0x2c70	; 0x2c70 <EEROM_VoidSendDataToAddress>
    4bdc:	d0 92 e0 02 	sts	0x02E0, r13
    4be0:	21 96       	adiw	r28, 0x01	; 1
    4be2:	08 94       	sec
    4be4:	e1 1c       	adc	r14, r1
    4be6:	f1 1c       	adc	r15, r1
    4be8:	c0 31       	cpi	r28, 0x10	; 16
    4bea:	d1 05       	cpc	r29, r1
    4bec:	09 f0       	breq	.+2      	; 0x4bf0 <ENTER_USER+0x10a>
    4bee:	a9 cf       	rjmp	.-174    	; 0x4b42 <ENTER_USER+0x5c>
    4bf0:	0e 94 1f 17 	call	0x2e3e	; 0x2e3e <LCD_vClearScreen>
    4bf4:	8f ef       	ldi	r24, 0xFF	; 255
    4bf6:	80 93 e0 02 	sts	0x02E0, r24
    4bfa:	df 91       	pop	r29
    4bfc:	cf 91       	pop	r28
    4bfe:	1f 91       	pop	r17
    4c00:	0f 91       	pop	r16
    4c02:	ff 90       	pop	r15
    4c04:	ef 90       	pop	r14
    4c06:	df 90       	pop	r13
    4c08:	08 95       	ret

00004c0a <__mulsi3>:
    4c0a:	62 9f       	mul	r22, r18
    4c0c:	d0 01       	movw	r26, r0
    4c0e:	73 9f       	mul	r23, r19
    4c10:	f0 01       	movw	r30, r0
    4c12:	82 9f       	mul	r24, r18
    4c14:	e0 0d       	add	r30, r0
    4c16:	f1 1d       	adc	r31, r1
    4c18:	64 9f       	mul	r22, r20
    4c1a:	e0 0d       	add	r30, r0
    4c1c:	f1 1d       	adc	r31, r1
    4c1e:	92 9f       	mul	r25, r18
    4c20:	f0 0d       	add	r31, r0
    4c22:	83 9f       	mul	r24, r19
    4c24:	f0 0d       	add	r31, r0
    4c26:	74 9f       	mul	r23, r20
    4c28:	f0 0d       	add	r31, r0
    4c2a:	65 9f       	mul	r22, r21
    4c2c:	f0 0d       	add	r31, r0
    4c2e:	99 27       	eor	r25, r25
    4c30:	72 9f       	mul	r23, r18
    4c32:	b0 0d       	add	r27, r0
    4c34:	e1 1d       	adc	r30, r1
    4c36:	f9 1f       	adc	r31, r25
    4c38:	63 9f       	mul	r22, r19
    4c3a:	b0 0d       	add	r27, r0
    4c3c:	e1 1d       	adc	r30, r1
    4c3e:	f9 1f       	adc	r31, r25
    4c40:	bd 01       	movw	r22, r26
    4c42:	cf 01       	movw	r24, r30
    4c44:	11 24       	eor	r1, r1
    4c46:	08 95       	ret

00004c48 <__udivmodsi4>:
    4c48:	a1 e2       	ldi	r26, 0x21	; 33
    4c4a:	1a 2e       	mov	r1, r26
    4c4c:	aa 1b       	sub	r26, r26
    4c4e:	bb 1b       	sub	r27, r27
    4c50:	fd 01       	movw	r30, r26
    4c52:	0d c0       	rjmp	.+26     	; 0x4c6e <__udivmodsi4_ep>

00004c54 <__udivmodsi4_loop>:
    4c54:	aa 1f       	adc	r26, r26
    4c56:	bb 1f       	adc	r27, r27
    4c58:	ee 1f       	adc	r30, r30
    4c5a:	ff 1f       	adc	r31, r31
    4c5c:	a2 17       	cp	r26, r18
    4c5e:	b3 07       	cpc	r27, r19
    4c60:	e4 07       	cpc	r30, r20
    4c62:	f5 07       	cpc	r31, r21
    4c64:	20 f0       	brcs	.+8      	; 0x4c6e <__udivmodsi4_ep>
    4c66:	a2 1b       	sub	r26, r18
    4c68:	b3 0b       	sbc	r27, r19
    4c6a:	e4 0b       	sbc	r30, r20
    4c6c:	f5 0b       	sbc	r31, r21

00004c6e <__udivmodsi4_ep>:
    4c6e:	66 1f       	adc	r22, r22
    4c70:	77 1f       	adc	r23, r23
    4c72:	88 1f       	adc	r24, r24
    4c74:	99 1f       	adc	r25, r25
    4c76:	1a 94       	dec	r1
    4c78:	69 f7       	brne	.-38     	; 0x4c54 <__udivmodsi4_loop>
    4c7a:	60 95       	com	r22
    4c7c:	70 95       	com	r23
    4c7e:	80 95       	com	r24
    4c80:	90 95       	com	r25
    4c82:	9b 01       	movw	r18, r22
    4c84:	ac 01       	movw	r20, r24
    4c86:	bd 01       	movw	r22, r26
    4c88:	cf 01       	movw	r24, r30
    4c8a:	08 95       	ret

00004c8c <__prologue_saves__>:
    4c8c:	2f 92       	push	r2
    4c8e:	3f 92       	push	r3
    4c90:	4f 92       	push	r4
    4c92:	5f 92       	push	r5
    4c94:	6f 92       	push	r6
    4c96:	7f 92       	push	r7
    4c98:	8f 92       	push	r8
    4c9a:	9f 92       	push	r9
    4c9c:	af 92       	push	r10
    4c9e:	bf 92       	push	r11
    4ca0:	cf 92       	push	r12
    4ca2:	df 92       	push	r13
    4ca4:	ef 92       	push	r14
    4ca6:	ff 92       	push	r15
    4ca8:	0f 93       	push	r16
    4caa:	1f 93       	push	r17
    4cac:	cf 93       	push	r28
    4cae:	df 93       	push	r29
    4cb0:	cd b7       	in	r28, 0x3d	; 61
    4cb2:	de b7       	in	r29, 0x3e	; 62
    4cb4:	ca 1b       	sub	r28, r26
    4cb6:	db 0b       	sbc	r29, r27
    4cb8:	0f b6       	in	r0, 0x3f	; 63
    4cba:	f8 94       	cli
    4cbc:	de bf       	out	0x3e, r29	; 62
    4cbe:	0f be       	out	0x3f, r0	; 63
    4cc0:	cd bf       	out	0x3d, r28	; 61
    4cc2:	09 94       	ijmp

00004cc4 <__epilogue_restores__>:
    4cc4:	2a 88       	ldd	r2, Y+18	; 0x12
    4cc6:	39 88       	ldd	r3, Y+17	; 0x11
    4cc8:	48 88       	ldd	r4, Y+16	; 0x10
    4cca:	5f 84       	ldd	r5, Y+15	; 0x0f
    4ccc:	6e 84       	ldd	r6, Y+14	; 0x0e
    4cce:	7d 84       	ldd	r7, Y+13	; 0x0d
    4cd0:	8c 84       	ldd	r8, Y+12	; 0x0c
    4cd2:	9b 84       	ldd	r9, Y+11	; 0x0b
    4cd4:	aa 84       	ldd	r10, Y+10	; 0x0a
    4cd6:	b9 84       	ldd	r11, Y+9	; 0x09
    4cd8:	c8 84       	ldd	r12, Y+8	; 0x08
    4cda:	df 80       	ldd	r13, Y+7	; 0x07
    4cdc:	ee 80       	ldd	r14, Y+6	; 0x06
    4cde:	fd 80       	ldd	r15, Y+5	; 0x05
    4ce0:	0c 81       	ldd	r16, Y+4	; 0x04
    4ce2:	1b 81       	ldd	r17, Y+3	; 0x03
    4ce4:	aa 81       	ldd	r26, Y+2	; 0x02
    4ce6:	b9 81       	ldd	r27, Y+1	; 0x01
    4ce8:	ce 0f       	add	r28, r30
    4cea:	d1 1d       	adc	r29, r1
    4cec:	0f b6       	in	r0, 0x3f	; 63
    4cee:	f8 94       	cli
    4cf0:	de bf       	out	0x3e, r29	; 62
    4cf2:	0f be       	out	0x3f, r0	; 63
    4cf4:	cd bf       	out	0x3d, r28	; 61
    4cf6:	ed 01       	movw	r28, r26
    4cf8:	08 95       	ret

00004cfa <_exit>:
    4cfa:	f8 94       	cli

00004cfc <__stop_program>:
    4cfc:	ff cf       	rjmp	.-2      	; 0x4cfc <__stop_program>
